
media_unit_fw.hex:     Dateiformat ihex


Disassembly of section .sec1:

00000000 <.sec1>:
       0:	0c 94 c8 01 	jmp	0x390	;  0x390
       4:	0c 94 ee 01 	jmp	0x3dc	;  0x3dc
       8:	0c 94 ee 01 	jmp	0x3dc	;  0x3dc
       c:	0c 94 ee 01 	jmp	0x3dc	;  0x3dc
      10:	0c 94 ee 01 	jmp	0x3dc	;  0x3dc
      14:	0c 94 ee 01 	jmp	0x3dc	;  0x3dc
      18:	0c 94 ee 01 	jmp	0x3dc	;  0x3dc
      1c:	0c 94 ee 01 	jmp	0x3dc	;  0x3dc
      20:	0c 94 ee 01 	jmp	0x3dc	;  0x3dc
      24:	0c 94 ee 01 	jmp	0x3dc	;  0x3dc
      28:	0c 94 ee 01 	jmp	0x3dc	;  0x3dc
      2c:	0c 94 ee 01 	jmp	0x3dc	;  0x3dc
      30:	0c 94 ee 01 	jmp	0x3dc	;  0x3dc
      34:	0c 94 ee 01 	jmp	0x3dc	;  0x3dc
      38:	0c 94 ee 01 	jmp	0x3dc	;  0x3dc
      3c:	0c 94 ee 01 	jmp	0x3dc	;  0x3dc
      40:	0c 94 ee 01 	jmp	0x3dc	;  0x3dc
      44:	0c 94 ee 01 	jmp	0x3dc	;  0x3dc
      48:	0c 94 ee 01 	jmp	0x3dc	;  0x3dc
      4c:	0c 94 ee 01 	jmp	0x3dc	;  0x3dc
      50:	0c 94 ee 01 	jmp	0x3dc	;  0x3dc
      54:	0c 94 ee 01 	jmp	0x3dc	;  0x3dc
      58:	0c 94 ee 01 	jmp	0x3dc	;  0x3dc
      5c:	0c 94 ee 01 	jmp	0x3dc	;  0x3dc
      60:	0c 94 ee 01 	jmp	0x3dc	;  0x3dc
      64:	0c 94 ee 01 	jmp	0x3dc	;  0x3dc
      68:	0c 94 ee 01 	jmp	0x3dc	;  0x3dc
      6c:	0c 94 ee 01 	jmp	0x3dc	;  0x3dc
      70:	0c 94 ee 01 	jmp	0x3dc	;  0x3dc
      74:	0c 94 ee 01 	jmp	0x3dc	;  0x3dc
      78:	0c 94 ee 01 	jmp	0x3dc	;  0x3dc
      7c:	0c 94 ee 01 	jmp	0x3dc	;  0x3dc
      80:	0c 94 ee 01 	jmp	0x3dc	;  0x3dc
      84:	0c 94 ee 01 	jmp	0x3dc	;  0x3dc
      88:	0c 94 ee 01 	jmp	0x3dc	;  0x3dc
      8c:	0c 94 ee 01 	jmp	0x3dc	;  0x3dc
      90:	0c 94 ee 01 	jmp	0x3dc	;  0x3dc
      94:	0c 94 ee 01 	jmp	0x3dc	;  0x3dc
      98:	0c 94 ee 01 	jmp	0x3dc	;  0x3dc
      9c:	0c 94 ee 01 	jmp	0x3dc	;  0x3dc
      a0:	0c 94 ee 01 	jmp	0x3dc	;  0x3dc
      a4:	0c 94 ee 01 	jmp	0x3dc	;  0x3dc
      a8:	0c 94 ee 01 	jmp	0x3dc	;  0x3dc
      ac:	0c 94 ee 01 	jmp	0x3dc	;  0x3dc
      b0:	0c 94 ee 01 	jmp	0x3dc	;  0x3dc
      b4:	0c 94 ee 01 	jmp	0x3dc	;  0x3dc
      b8:	0c 94 ee 01 	jmp	0x3dc	;  0x3dc
      bc:	0c 94 ee 01 	jmp	0x3dc	;  0x3dc
      c0:	0c 94 ee 01 	jmp	0x3dc	;  0x3dc
      c4:	0c 94 ee 01 	jmp	0x3dc	;  0x3dc
      c8:	0c 94 ee 01 	jmp	0x3dc	;  0x3dc
      cc:	0c 94 ee 01 	jmp	0x3dc	;  0x3dc
      d0:	0c 94 ee 01 	jmp	0x3dc	;  0x3dc
      d4:	0c 94 ee 01 	jmp	0x3dc	;  0x3dc
      d8:	0c 94 ee 01 	jmp	0x3dc	;  0x3dc
      dc:	0c 94 ee 01 	jmp	0x3dc	;  0x3dc
      e0:	0c 94 ee 01 	jmp	0x3dc	;  0x3dc
      e4:	0c 94 ee 01 	jmp	0x3dc	;  0x3dc
      e8:	0c 94 ee 01 	jmp	0x3dc	;  0x3dc
      ec:	0c 94 ee 01 	jmp	0x3dc	;  0x3dc
      f0:	0c 94 ee 01 	jmp	0x3dc	;  0x3dc
      f4:	0c 94 ee 01 	jmp	0x3dc	;  0x3dc
      f8:	0c 94 ee 01 	jmp	0x3dc	;  0x3dc
      fc:	0c 94 ee 01 	jmp	0x3dc	;  0x3dc
     100:	0c 94 ee 01 	jmp	0x3dc	;  0x3dc
     104:	0c 94 ee 01 	jmp	0x3dc	;  0x3dc
     108:	0c 94 ee 01 	jmp	0x3dc	;  0x3dc
     10c:	0c 94 ee 01 	jmp	0x3dc	;  0x3dc
     110:	0c 94 ee 01 	jmp	0x3dc	;  0x3dc
     114:	0c 94 ee 01 	jmp	0x3dc	;  0x3dc
     118:	0c 94 ee 01 	jmp	0x3dc	;  0x3dc
     11c:	0c 94 ee 01 	jmp	0x3dc	;  0x3dc
     120:	0c 94 ee 01 	jmp	0x3dc	;  0x3dc
     124:	0c 94 ee 01 	jmp	0x3dc	;  0x3dc
     128:	0c 94 ee 01 	jmp	0x3dc	;  0x3dc
     12c:	0c 94 ee 01 	jmp	0x3dc	;  0x3dc
     130:	0c 94 ee 01 	jmp	0x3dc	;  0x3dc
     134:	0c 94 ee 01 	jmp	0x3dc	;  0x3dc
     138:	0c 94 ee 01 	jmp	0x3dc	;  0x3dc
     13c:	0c 94 ee 01 	jmp	0x3dc	;  0x3dc
     140:	0c 94 ee 01 	jmp	0x3dc	;  0x3dc
     144:	0c 94 ee 01 	jmp	0x3dc	;  0x3dc
     148:	0c 94 ee 01 	jmp	0x3dc	;  0x3dc
     14c:	0c 94 ee 01 	jmp	0x3dc	;  0x3dc
     150:	0c 94 ee 01 	jmp	0x3dc	;  0x3dc
     154:	0c 94 ee 01 	jmp	0x3dc	;  0x3dc
     158:	0c 94 ee 01 	jmp	0x3dc	;  0x3dc
     15c:	0c 94 ee 01 	jmp	0x3dc	;  0x3dc
     160:	0c 94 ee 01 	jmp	0x3dc	;  0x3dc
     164:	0c 94 ee 01 	jmp	0x3dc	;  0x3dc
     168:	0c 94 ee 01 	jmp	0x3dc	;  0x3dc
     16c:	0c 94 ee 01 	jmp	0x3dc	;  0x3dc
     170:	0c 94 ee 01 	jmp	0x3dc	;  0x3dc
     174:	0c 94 ee 01 	jmp	0x3dc	;  0x3dc
     178:	0c 94 ee 01 	jmp	0x3dc	;  0x3dc
     17c:	0c 94 ee 01 	jmp	0x3dc	;  0x3dc
     180:	0c 94 ee 01 	jmp	0x3dc	;  0x3dc
     184:	0c 94 ee 01 	jmp	0x3dc	;  0x3dc
     188:	0c 94 ee 01 	jmp	0x3dc	;  0x3dc
     18c:	0c 94 ee 01 	jmp	0x3dc	;  0x3dc
     190:	0c 94 ee 01 	jmp	0x3dc	;  0x3dc
     194:	0c 94 ee 01 	jmp	0x3dc	;  0x3dc
     198:	0c 94 ee 01 	jmp	0x3dc	;  0x3dc
     19c:	0c 94 ee 01 	jmp	0x3dc	;  0x3dc
     1a0:	0c 94 ee 01 	jmp	0x3dc	;  0x3dc
     1a4:	0c 94 ee 01 	jmp	0x3dc	;  0x3dc
     1a8:	0c 94 ee 01 	jmp	0x3dc	;  0x3dc
     1ac:	0c 94 ee 01 	jmp	0x3dc	;  0x3dc
     1b0:	0c 94 ee 01 	jmp	0x3dc	;  0x3dc
     1b4:	0c 94 ee 01 	jmp	0x3dc	;  0x3dc
     1b8:	0c 94 ee 01 	jmp	0x3dc	;  0x3dc
     1bc:	0c 94 ee 01 	jmp	0x3dc	;  0x3dc
     1c0:	0c 94 ee 01 	jmp	0x3dc	;  0x3dc
     1c4:	0c 94 ee 01 	jmp	0x3dc	;  0x3dc
     1c8:	0c 94 ee 01 	jmp	0x3dc	;  0x3dc
     1cc:	0c 94 ee 01 	jmp	0x3dc	;  0x3dc
     1d0:	0c 94 ee 01 	jmp	0x3dc	;  0x3dc
     1d4:	0c 94 ee 01 	jmp	0x3dc	;  0x3dc
     1d8:	0c 94 ee 01 	jmp	0x3dc	;  0x3dc
     1dc:	0c 94 ee 01 	jmp	0x3dc	;  0x3dc
     1e0:	0c 94 ee 01 	jmp	0x3dc	;  0x3dc
     1e4:	0c 94 ee 01 	jmp	0x3dc	;  0x3dc
     1e8:	0c 94 ee 01 	jmp	0x3dc	;  0x3dc
     1ec:	0c 94 ee 01 	jmp	0x3dc	;  0x3dc
     1f0:	0c 94 ee 01 	jmp	0x3dc	;  0x3dc
     1f4:	0c 94 ee 01 	jmp	0x3dc	;  0x3dc
     1f8:	0c 94 ee 01 	jmp	0x3dc	;  0x3dc
     1fc:	01 1a       	sub	r0, r17
     1fe:	06 1a       	sub	r0, r22
     200:	0b 1a       	sub	r0, r27
     202:	10 1a       	sub	r1, r16
     204:	15 1a       	sub	r1, r21
     206:	1a 1a       	sub	r1, r26
     208:	1f 1a       	sub	r1, r31
     20a:	24 1a       	sub	r2, r20
     20c:	29 1a       	sub	r2, r25
     20e:	2e 1a       	sub	r2, r30
     210:	33 1a       	sub	r3, r19
     212:	0c 94 0b 1a 	jmp	0x3416	;  0x3416
     216:	0c 94 1f 1a 	jmp	0x343e	;  0x343e
     21a:	0c 94 01 1a 	jmp	0x3402	;  0x3402
     21e:	0c 94 3a 18 	jmp	0x3074	;  0x3074
     222:	0c 94 10 1a 	jmp	0x3420	;  0x3420
     226:	0c 94 24 1a 	jmp	0x3448	;  0x3448
     22a:	0c 94 33 1a 	jmp	0x3466	;  0x3466
     22e:	0c 94 15 1a 	jmp	0x342a	;  0x342a
     232:	0c 94 0e 18 	jmp	0x301c	;  0x301c
     236:	0c 94 90 18 	jmp	0x3120	;  0x3120
     23a:	0c 94 06 1a 	jmp	0x340c	;  0x340c
     23e:	0c 94 29 1a 	jmp	0x3452	;  0x3452
     242:	0c 94 1a 1a 	jmp	0x3434	;  0x3434
     246:	0c 94 2e 1a 	jmp	0x345c	;  0x345c
     24a:	67 e6       	ldi	r22, 0x67	; 103
     24c:	09 6a       	ori	r16, 0xA9	; 169
     24e:	85 ae       	std	Z+61, r8	; 0x3d
     250:	67 bb       	out	0x17, r22	; 23
     252:	72 f3       	brmi	.-36     	;  0x230
     254:	6e 3c       	cpi	r22, 0xCE	; 206
     256:	3a f5       	brpl	.+78     	;  0x2a6
     258:	4f a5       	ldd	r20, Y+47	; 0x2f
     25a:	7f 52       	subi	r23, 0x2F	; 47
     25c:	0e 51       	subi	r16, 0x1E	; 30
     25e:	8c 68       	ori	r24, 0x8C	; 140
     260:	05 9b       	sbis	0x00, 5	; 0
     262:	ab d9       	rcall	.-3242   	;  0xfffff5ba
     264:	83 1f       	adc	r24, r19
     266:	19 cd       	rjmp	.-1486   	;  0xfffffc9a
     268:	e0 5b       	subi	r30, 0xB0	; 176
     26a:	98 2f       	mov	r25, r24
     26c:	8a 42       	sbci	r24, 0x2A	; 42
     26e:	91 44       	sbci	r25, 0x41	; 65
     270:	37 71       	andi	r19, 0x17	; 23
     272:	cf fb       	.word	0xfbcf	; ????
     274:	c0 b5       	in	r28, 0x20	; 32
     276:	a5 db       	rcall	.-2230   	;  0xfffff9c2
     278:	b5 e9       	ldi	r27, 0x95	; 149
     27a:	5b c2       	rjmp	.+1206   	;  0x732
     27c:	56 39       	cpi	r21, 0x96	; 150
     27e:	f1 11       	cpse	r31, r1
     280:	f1 59       	subi	r31, 0x91	; 145
     282:	a4 82       	std	Z+4, r10	; 0x04
     284:	3f 92       	push	r3
     286:	d5 5e       	subi	r29, 0xE5	; 229
     288:	1c ab       	std	Y+52, r17	; 0x34
     28a:	98 aa       	std	Y+48, r9	; 0x30
     28c:	07 d8       	rcall	.-4082   	;  0xfffff29c
     28e:	01 5b       	subi	r16, 0xB1	; 177
     290:	83 12       	cpse	r8, r19
     292:	be 85       	ldd	r27, Y+14	; 0x0e
     294:	31 24       	eor	r3, r1
     296:	c3 7d       	andi	r28, 0xD3	; 211
     298:	0c 55       	subi	r16, 0x5C	; 92
     29a:	74 5d       	subi	r23, 0xD4	; 212
     29c:	be 72       	andi	r27, 0x2E	; 46
     29e:	fe b1       	in	r31, 0x0e	; 14
     2a0:	de 80       	ldd	r13, Y+6	; 0x06
     2a2:	a7 06       	cpc	r10, r23
     2a4:	dc 9b       	sbis	0x1b, 4	; 27
     2a6:	74 f1       	brlt	.+92     	;  0x304
     2a8:	9b c1       	rjmp	.+822    	;  0x5e0
     2aa:	c1 69       	ori	r28, 0x91	; 145
     2ac:	9b e4       	ldi	r25, 0x4B	; 75
     2ae:	86 47       	sbci	r24, 0x76	; 118
     2b0:	be ef       	ldi	r27, 0xFE	; 254
     2b2:	c6 9d       	mul	r28, r6
     2b4:	c1 0f       	add	r28, r17
     2b6:	cc a1       	ldd	r28, Y+36	; 0x24
     2b8:	0c 24       	eor	r0, r12
     2ba:	6f 2c       	mov	r6, r15
     2bc:	e9 2d       	mov	r30, r9
     2be:	aa 84       	ldd	r10, Y+10	; 0x0a
     2c0:	74 4a       	sbci	r23, 0xA4	; 164
     2c2:	dc a9       	ldd	r29, Y+52	; 0x34
     2c4:	b0 5c       	subi	r27, 0xC0	; 192
     2c6:	da 88       	ldd	r13, Y+18	; 0x12
     2c8:	f9 76       	andi	r31, 0x69	; 105
     2ca:	52 51       	subi	r21, 0x12	; 18
     2cc:	3e 98       	cbi	0x07, 6	; 7
     2ce:	6d c6       	rjmp	.+3290   	;  0xfaa
     2d0:	31 a8       	ldd	r3, Z+49	; 0x31
     2d2:	c8 27       	eor	r28, r24
     2d4:	03 b0       	in	r0, 0x03	; 3
     2d6:	c7 7f       	andi	r28, 0xF7	; 247
     2d8:	59 bf       	out	0x39, r21	; 57
     2da:	f3 0b       	sbc	r31, r19
     2dc:	e0 c6       	rjmp	.+3520   	;  0x109e
     2de:	47 91       	elpm	r20, Z+
     2e0:	a7 d5       	rcall	.+2894   	;  0xe30
     2e2:	51 63       	ori	r21, 0x31	; 49
     2e4:	ca 06       	cpc	r12, r26
     2e6:	67 29       	or	r22, r7
     2e8:	29 14       	cp	r2, r9
     2ea:	85 0a       	sbc	r8, r21
     2ec:	b7 27       	eor	r27, r23
     2ee:	38 21       	and	r19, r8
     2f0:	1b 2e       	mov	r1, r27
     2f2:	fc 6d       	ori	r31, 0xDC	; 220
     2f4:	2c 4d       	sbci	r18, 0xDC	; 220
     2f6:	13 0d       	add	r17, r3
     2f8:	38 53       	subi	r19, 0x38	; 56
     2fa:	54 73       	andi	r21, 0x34	; 52
     2fc:	0a 65       	ori	r16, 0x5A	; 90
     2fe:	bb 0a       	sbc	r11, r27
     300:	6a 76       	andi	r22, 0x6A	; 106
     302:	2e c9       	rjmp	.-3492   	;  0xfffff560
     304:	c2 81       	ldd	r28, Z+2	; 0x02
     306:	85 2c       	mov	r8, r5
     308:	72 92       	st	-Z, r7
     30a:	a1 e8       	ldi	r26, 0x81	; 129
     30c:	bf a2       	std	Y+39, r11	; 0x27
     30e:	4b 66       	ori	r20, 0x6B	; 107
     310:	1a a8       	ldd	r1, Y+50	; 0x32
     312:	70 8b       	std	Z+16, r23	; 0x10
     314:	4b c2       	rjmp	.+1174   	;  0x7ac
     316:	a3 51       	subi	r26, 0x13	; 19
     318:	6c c7       	rjmp	.+3800   	;  0x11f2
     31a:	19 e8       	ldi	r17, 0x89	; 137
     31c:	92 d1       	rcall	.+804    	;  0x642
     31e:	24 06       	cpc	r2, r20
     320:	99 d6       	rcall	.+3378   	;  0x1054
     322:	85 35       	cpi	r24, 0x55	; 85
     324:	0e f4       	brtc	.+2      	;  0x328
     326:	70 a0       	ldd	r7, Z+32	; 0x20
     328:	6a 10       	cpse	r6, r10
     32a:	16 c1       	rjmp	.+556    	;  0x558
     32c:	a4 19       	sub	r26, r4
     32e:	08 6c       	ori	r16, 0xC8	; 200
     330:	37 1e       	adc	r3, r23
     332:	4c 77       	andi	r20, 0x7C	; 124
     334:	48 27       	eor	r20, r24
     336:	b5 bc       	out	0x25, r11	; 37
     338:	b0 34       	cpi	r27, 0x40	; 64
     33a:	b3 0c       	add	r11, r3
     33c:	1c 39       	cpi	r17, 0x9C	; 156
     33e:	4a aa       	std	Y+50, r4	; 0x32
     340:	d8 4e       	sbci	r29, 0xE8	; 232
     342:	4f ca       	rjmp	.-2914   	;  0xfffff7e2
     344:	9c 5b       	subi	r25, 0xBC	; 188
     346:	f3 6f       	ori	r31, 0xF3	; 243
     348:	2e 68       	ori	r18, 0x8E	; 142
     34a:	ee 82       	std	Y+6, r14	; 0x06
     34c:	8f 74       	andi	r24, 0x4F	; 79
     34e:	6f 63       	ori	r22, 0x3F	; 63
     350:	a5 78       	andi	r26, 0x85	; 133
     352:	14 78       	andi	r17, 0x84	; 132
     354:	c8 84       	ldd	r12, Y+8	; 0x08
     356:	08 02       	muls	r16, r24
     358:	c7 8c       	ldd	r12, Z+31	; 0x1f
     35a:	fa ff       	.word	0xfffa	; ????
     35c:	be 90       	ld	r11, -X
     35e:	eb 6c       	ori	r30, 0xCB	; 203
     360:	50 a4       	ldd	r5, Z+40	; 0x28
     362:	f7 a3       	std	Z+39, r31	; 0x27
     364:	f9 be       	out	0x39, r15	; 57
     366:	f2 78       	andi	r31, 0x82	; 130
     368:	71 c6       	rjmp	.+3298   	;  0x104c
	...
     38e:	00 00       	nop
     390:	11 24       	eor	r1, r1
     392:	1f be       	out	0x3f, r1	; 63
     394:	cf ef       	ldi	r28, 0xFF	; 255
     396:	cd bf       	out	0x3d, r28	; 61
     398:	df e3       	ldi	r29, 0x3F	; 63
     39a:	de bf       	out	0x3e, r29	; 62
     39c:	00 e0       	ldi	r16, 0x00	; 0
     39e:	0c bf       	out	0x3c, r16	; 60
     3a0:	18 be       	out	0x38, r1	; 56
     3a2:	19 be       	out	0x39, r1	; 57
     3a4:	1a be       	out	0x3a, r1	; 58
     3a6:	1b be       	out	0x3b, r1	; 59
     3a8:	11 e2       	ldi	r17, 0x21	; 33
     3aa:	a0 e0       	ldi	r26, 0x00	; 0
     3ac:	b0 e2       	ldi	r27, 0x20	; 32
     3ae:	ec e5       	ldi	r30, 0x5C	; 92
     3b0:	f6 e5       	ldi	r31, 0x56	; 86
     3b2:	00 e0       	ldi	r16, 0x00	; 0
     3b4:	0b bf       	out	0x3b, r16	; 59
     3b6:	02 c0       	rjmp	.+4      	;  0x3bc
     3b8:	07 90       	elpm	r0, Z+
     3ba:	0d 92       	st	X+, r0
     3bc:	a6 3d       	cpi	r26, 0xD6	; 214
     3be:	b1 07       	cpc	r27, r17
     3c0:	d9 f7       	brne	.-10     	;  0x3b8
     3c2:	1b be       	out	0x3b, r1	; 59
     3c4:	22 e2       	ldi	r18, 0x22	; 34
     3c6:	a6 ed       	ldi	r26, 0xD6	; 214
     3c8:	b1 e2       	ldi	r27, 0x21	; 33
     3ca:	01 c0       	rjmp	.+2      	;  0x3ce
     3cc:	1d 92       	st	X+, r1
     3ce:	a9 3d       	cpi	r26, 0xD9	; 217
     3d0:	b2 07       	cpc	r27, r18
     3d2:	e1 f7       	brne	.-8      	;  0x3cc
     3d4:	0e 94 84 09 	call	0x1308	;  0x1308
     3d8:	0c 94 2c 2b 	jmp	0x5658	;  0x5658
     3dc:	0c 94 00 00 	jmp	0	;  0x0
     3e0:	cf 93       	push	r28
     3e2:	df 93       	push	r29
     3e4:	cd b7       	in	r28, 0x3d	; 61
     3e6:	de b7       	in	r29, 0x3e	; 62
     3e8:	0e 94 c2 15 	call	0x2b84	;  0x2b84
     3ec:	df 91       	pop	r29
     3ee:	cf 91       	pop	r28
     3f0:	08 95       	ret
     3f2:	cf 93       	push	r28
     3f4:	df 93       	push	r29
     3f6:	00 d0       	rcall	.+0      	;  0x3f8
     3f8:	cd b7       	in	r28, 0x3d	; 61
     3fa:	de b7       	in	r29, 0x3e	; 62
     3fc:	0e 94 c2 15 	call	0x2b84	;  0x2b84
     400:	0e 94 6d 04 	call	0x8da	;  0x8da
     404:	80 e0       	ldi	r24, 0x00	; 0
     406:	90 e0       	ldi	r25, 0x00	; 0
     408:	0e 94 f9 2a 	call	0x55f2	;  0x55f2
     40c:	8b 83       	std	Y+3, r24	; 0x03
     40e:	19 82       	std	Y+1, r1	; 0x01
     410:	1a 82       	std	Y+2, r1	; 0x02
     412:	0e 94 6d 04 	call	0x8da	;  0x8da
     416:	8b 81       	ldd	r24, Y+3	; 0x03
     418:	8f 3f       	cpi	r24, 0xFF	; 255
     41a:	09 f4       	brne	.+2      	;  0x41e
     41c:	75 c1       	rjmp	.+746    	;  0x708
     41e:	80 91 0f 20 	lds	r24, 0x200F
     422:	90 91 10 20 	lds	r25, 0x2010
     426:	6f e1       	ldi	r22, 0x1F	; 31
     428:	70 e2       	ldi	r23, 0x20	; 32
     42a:	0e 94 4b 18 	call	0x3096	;  0x3096
     42e:	80 91 0f 20 	lds	r24, 0x200F
     432:	90 91 10 20 	lds	r25, 0x2010
     436:	2a 81       	ldd	r18, Y+2	; 0x02
     438:	2f 93       	push	r18
     43a:	29 81       	ldd	r18, Y+1	; 0x01
     43c:	2f 93       	push	r18
     43e:	2f e5       	ldi	r18, 0x5F	; 95
     440:	30 e2       	ldi	r19, 0x20	; 32
     442:	23 2f       	mov	r18, r19
     444:	2f 93       	push	r18
     446:	2f e5       	ldi	r18, 0x5F	; 95
     448:	30 e2       	ldi	r19, 0x20	; 32
     44a:	2f 93       	push	r18
     44c:	29 2f       	mov	r18, r25
     44e:	2f 93       	push	r18
     450:	8f 93       	push	r24
     452:	0e 94 70 18 	call	0x30e0	;  0x30e0
     456:	0f 90       	pop	r0
     458:	0f 90       	pop	r0
     45a:	0f 90       	pop	r0
     45c:	0f 90       	pop	r0
     45e:	0f 90       	pop	r0
     460:	0f 90       	pop	r0
     462:	0e 94 04 05 	call	0xa08	;  0xa08
     466:	89 81       	ldd	r24, Y+1	; 0x01
     468:	9a 81       	ldd	r25, Y+2	; 0x02
     46a:	0a 96       	adiw	r24, 0x0a	; 10
     46c:	89 83       	std	Y+1, r24	; 0x01
     46e:	9a 83       	std	Y+2, r25	; 0x02
     470:	80 91 0f 20 	lds	r24, 0x200F
     474:	90 91 10 20 	lds	r25, 0x2010
     478:	2a 81       	ldd	r18, Y+2	; 0x02
     47a:	2f 93       	push	r18
     47c:	29 81       	ldd	r18, Y+1	; 0x01
     47e:	2f 93       	push	r18
     480:	2f e5       	ldi	r18, 0x5F	; 95
     482:	30 e2       	ldi	r19, 0x20	; 32
     484:	23 2f       	mov	r18, r19
     486:	2f 93       	push	r18
     488:	2f e5       	ldi	r18, 0x5F	; 95
     48a:	30 e2       	ldi	r19, 0x20	; 32
     48c:	2f 93       	push	r18
     48e:	29 2f       	mov	r18, r25
     490:	2f 93       	push	r18
     492:	8f 93       	push	r24
     494:	0e 94 70 18 	call	0x30e0	;  0x30e0
     498:	0f 90       	pop	r0
     49a:	0f 90       	pop	r0
     49c:	0f 90       	pop	r0
     49e:	0f 90       	pop	r0
     4a0:	0f 90       	pop	r0
     4a2:	0f 90       	pop	r0
     4a4:	0e 94 04 05 	call	0xa08	;  0xa08
     4a8:	89 81       	ldd	r24, Y+1	; 0x01
     4aa:	9a 81       	ldd	r25, Y+2	; 0x02
     4ac:	0a 96       	adiw	r24, 0x0a	; 10
     4ae:	89 83       	std	Y+1, r24	; 0x01
     4b0:	9a 83       	std	Y+2, r25	; 0x02
     4b2:	80 91 0f 20 	lds	r24, 0x200F
     4b6:	90 91 10 20 	lds	r25, 0x2010
     4ba:	2a 81       	ldd	r18, Y+2	; 0x02
     4bc:	2f 93       	push	r18
     4be:	29 81       	ldd	r18, Y+1	; 0x01
     4c0:	2f 93       	push	r18
     4c2:	2f e5       	ldi	r18, 0x5F	; 95
     4c4:	30 e2       	ldi	r19, 0x20	; 32
     4c6:	23 2f       	mov	r18, r19
     4c8:	2f 93       	push	r18
     4ca:	2f e5       	ldi	r18, 0x5F	; 95
     4cc:	30 e2       	ldi	r19, 0x20	; 32
     4ce:	2f 93       	push	r18
     4d0:	29 2f       	mov	r18, r25
     4d2:	2f 93       	push	r18
     4d4:	8f 93       	push	r24
     4d6:	0e 94 70 18 	call	0x30e0	;  0x30e0
     4da:	0f 90       	pop	r0
     4dc:	0f 90       	pop	r0
     4de:	0f 90       	pop	r0
     4e0:	0f 90       	pop	r0
     4e2:	0f 90       	pop	r0
     4e4:	0f 90       	pop	r0
     4e6:	0e 94 04 05 	call	0xa08	;  0xa08
     4ea:	89 81       	ldd	r24, Y+1	; 0x01
     4ec:	9a 81       	ldd	r25, Y+2	; 0x02
     4ee:	0a 96       	adiw	r24, 0x0a	; 10
     4f0:	89 83       	std	Y+1, r24	; 0x01
     4f2:	9a 83       	std	Y+2, r25	; 0x02
     4f4:	80 91 0f 20 	lds	r24, 0x200F
     4f8:	90 91 10 20 	lds	r25, 0x2010
     4fc:	2a 81       	ldd	r18, Y+2	; 0x02
     4fe:	2f 93       	push	r18
     500:	29 81       	ldd	r18, Y+1	; 0x01
     502:	2f 93       	push	r18
     504:	2f e5       	ldi	r18, 0x5F	; 95
     506:	30 e2       	ldi	r19, 0x20	; 32
     508:	23 2f       	mov	r18, r19
     50a:	2f 93       	push	r18
     50c:	2f e5       	ldi	r18, 0x5F	; 95
     50e:	30 e2       	ldi	r19, 0x20	; 32
     510:	2f 93       	push	r18
     512:	29 2f       	mov	r18, r25
     514:	2f 93       	push	r18
     516:	8f 93       	push	r24
     518:	0e 94 70 18 	call	0x30e0	;  0x30e0
     51c:	0f 90       	pop	r0
     51e:	0f 90       	pop	r0
     520:	0f 90       	pop	r0
     522:	0f 90       	pop	r0
     524:	0f 90       	pop	r0
     526:	0f 90       	pop	r0
     528:	0e 94 04 05 	call	0xa08	;  0xa08
     52c:	89 81       	ldd	r24, Y+1	; 0x01
     52e:	9a 81       	ldd	r25, Y+2	; 0x02
     530:	0a 96       	adiw	r24, 0x0a	; 10
     532:	89 83       	std	Y+1, r24	; 0x01
     534:	9a 83       	std	Y+2, r25	; 0x02
     536:	80 91 0f 20 	lds	r24, 0x200F
     53a:	90 91 10 20 	lds	r25, 0x2010
     53e:	2a 81       	ldd	r18, Y+2	; 0x02
     540:	2f 93       	push	r18
     542:	29 81       	ldd	r18, Y+1	; 0x01
     544:	2f 93       	push	r18
     546:	2f e5       	ldi	r18, 0x5F	; 95
     548:	30 e2       	ldi	r19, 0x20	; 32
     54a:	23 2f       	mov	r18, r19
     54c:	2f 93       	push	r18
     54e:	2f e5       	ldi	r18, 0x5F	; 95
     550:	30 e2       	ldi	r19, 0x20	; 32
     552:	2f 93       	push	r18
     554:	29 2f       	mov	r18, r25
     556:	2f 93       	push	r18
     558:	8f 93       	push	r24
     55a:	0e 94 70 18 	call	0x30e0	;  0x30e0
     55e:	0f 90       	pop	r0
     560:	0f 90       	pop	r0
     562:	0f 90       	pop	r0
     564:	0f 90       	pop	r0
     566:	0f 90       	pop	r0
     568:	0f 90       	pop	r0
     56a:	0e 94 04 05 	call	0xa08	;  0xa08
     56e:	89 81       	ldd	r24, Y+1	; 0x01
     570:	9a 81       	ldd	r25, Y+2	; 0x02
     572:	0a 96       	adiw	r24, 0x0a	; 10
     574:	89 83       	std	Y+1, r24	; 0x01
     576:	9a 83       	std	Y+2, r25	; 0x02
     578:	80 91 0f 20 	lds	r24, 0x200F
     57c:	90 91 10 20 	lds	r25, 0x2010
     580:	2a 81       	ldd	r18, Y+2	; 0x02
     582:	2f 93       	push	r18
     584:	29 81       	ldd	r18, Y+1	; 0x01
     586:	2f 93       	push	r18
     588:	2f e5       	ldi	r18, 0x5F	; 95
     58a:	30 e2       	ldi	r19, 0x20	; 32
     58c:	23 2f       	mov	r18, r19
     58e:	2f 93       	push	r18
     590:	2f e5       	ldi	r18, 0x5F	; 95
     592:	30 e2       	ldi	r19, 0x20	; 32
     594:	2f 93       	push	r18
     596:	29 2f       	mov	r18, r25
     598:	2f 93       	push	r18
     59a:	8f 93       	push	r24
     59c:	0e 94 70 18 	call	0x30e0	;  0x30e0
     5a0:	0f 90       	pop	r0
     5a2:	0f 90       	pop	r0
     5a4:	0f 90       	pop	r0
     5a6:	0f 90       	pop	r0
     5a8:	0f 90       	pop	r0
     5aa:	0f 90       	pop	r0
     5ac:	0e 94 04 05 	call	0xa08	;  0xa08
     5b0:	89 81       	ldd	r24, Y+1	; 0x01
     5b2:	9a 81       	ldd	r25, Y+2	; 0x02
     5b4:	0a 96       	adiw	r24, 0x0a	; 10
     5b6:	89 83       	std	Y+1, r24	; 0x01
     5b8:	9a 83       	std	Y+2, r25	; 0x02
     5ba:	80 91 0f 20 	lds	r24, 0x200F
     5be:	90 91 10 20 	lds	r25, 0x2010
     5c2:	2a 81       	ldd	r18, Y+2	; 0x02
     5c4:	2f 93       	push	r18
     5c6:	29 81       	ldd	r18, Y+1	; 0x01
     5c8:	2f 93       	push	r18
     5ca:	2f e5       	ldi	r18, 0x5F	; 95
     5cc:	30 e2       	ldi	r19, 0x20	; 32
     5ce:	23 2f       	mov	r18, r19
     5d0:	2f 93       	push	r18
     5d2:	2f e5       	ldi	r18, 0x5F	; 95
     5d4:	30 e2       	ldi	r19, 0x20	; 32
     5d6:	2f 93       	push	r18
     5d8:	29 2f       	mov	r18, r25
     5da:	2f 93       	push	r18
     5dc:	8f 93       	push	r24
     5de:	0e 94 70 18 	call	0x30e0	;  0x30e0
     5e2:	0f 90       	pop	r0
     5e4:	0f 90       	pop	r0
     5e6:	0f 90       	pop	r0
     5e8:	0f 90       	pop	r0
     5ea:	0f 90       	pop	r0
     5ec:	0f 90       	pop	r0
     5ee:	0e 94 04 05 	call	0xa08	;  0xa08
     5f2:	89 81       	ldd	r24, Y+1	; 0x01
     5f4:	9a 81       	ldd	r25, Y+2	; 0x02
     5f6:	0a 96       	adiw	r24, 0x0a	; 10
     5f8:	89 83       	std	Y+1, r24	; 0x01
     5fa:	9a 83       	std	Y+2, r25	; 0x02
     5fc:	80 91 0f 20 	lds	r24, 0x200F
     600:	90 91 10 20 	lds	r25, 0x2010
     604:	2a 81       	ldd	r18, Y+2	; 0x02
     606:	2f 93       	push	r18
     608:	29 81       	ldd	r18, Y+1	; 0x01
     60a:	2f 93       	push	r18
     60c:	2f e5       	ldi	r18, 0x5F	; 95
     60e:	30 e2       	ldi	r19, 0x20	; 32
     610:	23 2f       	mov	r18, r19
     612:	2f 93       	push	r18
     614:	2f e5       	ldi	r18, 0x5F	; 95
     616:	30 e2       	ldi	r19, 0x20	; 32
     618:	2f 93       	push	r18
     61a:	29 2f       	mov	r18, r25
     61c:	2f 93       	push	r18
     61e:	8f 93       	push	r24
     620:	0e 94 70 18 	call	0x30e0	;  0x30e0
     624:	0f 90       	pop	r0
     626:	0f 90       	pop	r0
     628:	0f 90       	pop	r0
     62a:	0f 90       	pop	r0
     62c:	0f 90       	pop	r0
     62e:	0f 90       	pop	r0
     630:	0e 94 04 05 	call	0xa08	;  0xa08
     634:	89 81       	ldd	r24, Y+1	; 0x01
     636:	9a 81       	ldd	r25, Y+2	; 0x02
     638:	0a 96       	adiw	r24, 0x0a	; 10
     63a:	89 83       	std	Y+1, r24	; 0x01
     63c:	9a 83       	std	Y+2, r25	; 0x02
     63e:	80 91 0f 20 	lds	r24, 0x200F
     642:	90 91 10 20 	lds	r25, 0x2010
     646:	2a 81       	ldd	r18, Y+2	; 0x02
     648:	2f 93       	push	r18
     64a:	29 81       	ldd	r18, Y+1	; 0x01
     64c:	2f 93       	push	r18
     64e:	2f e5       	ldi	r18, 0x5F	; 95
     650:	30 e2       	ldi	r19, 0x20	; 32
     652:	23 2f       	mov	r18, r19
     654:	2f 93       	push	r18
     656:	2f e5       	ldi	r18, 0x5F	; 95
     658:	30 e2       	ldi	r19, 0x20	; 32
     65a:	2f 93       	push	r18
     65c:	29 2f       	mov	r18, r25
     65e:	2f 93       	push	r18
     660:	8f 93       	push	r24
     662:	0e 94 70 18 	call	0x30e0	;  0x30e0
     666:	0f 90       	pop	r0
     668:	0f 90       	pop	r0
     66a:	0f 90       	pop	r0
     66c:	0f 90       	pop	r0
     66e:	0f 90       	pop	r0
     670:	0f 90       	pop	r0
     672:	0e 94 04 05 	call	0xa08	;  0xa08
     676:	89 81       	ldd	r24, Y+1	; 0x01
     678:	9a 81       	ldd	r25, Y+2	; 0x02
     67a:	0a 96       	adiw	r24, 0x0a	; 10
     67c:	89 83       	std	Y+1, r24	; 0x01
     67e:	9a 83       	std	Y+2, r25	; 0x02
     680:	80 91 0f 20 	lds	r24, 0x200F
     684:	90 91 10 20 	lds	r25, 0x2010
     688:	2a 81       	ldd	r18, Y+2	; 0x02
     68a:	2f 93       	push	r18
     68c:	29 81       	ldd	r18, Y+1	; 0x01
     68e:	2f 93       	push	r18
     690:	2f e5       	ldi	r18, 0x5F	; 95
     692:	30 e2       	ldi	r19, 0x20	; 32
     694:	23 2f       	mov	r18, r19
     696:	2f 93       	push	r18
     698:	2f e5       	ldi	r18, 0x5F	; 95
     69a:	30 e2       	ldi	r19, 0x20	; 32
     69c:	2f 93       	push	r18
     69e:	29 2f       	mov	r18, r25
     6a0:	2f 93       	push	r18
     6a2:	8f 93       	push	r24
     6a4:	0e 94 70 18 	call	0x30e0	;  0x30e0
     6a8:	0f 90       	pop	r0
     6aa:	0f 90       	pop	r0
     6ac:	0f 90       	pop	r0
     6ae:	0f 90       	pop	r0
     6b0:	0f 90       	pop	r0
     6b2:	0f 90       	pop	r0
     6b4:	0e 94 04 05 	call	0xa08	;  0xa08
     6b8:	89 81       	ldd	r24, Y+1	; 0x01
     6ba:	9a 81       	ldd	r25, Y+2	; 0x02
     6bc:	0a 96       	adiw	r24, 0x0a	; 10
     6be:	89 83       	std	Y+1, r24	; 0x01
     6c0:	9a 83       	std	Y+2, r25	; 0x02
     6c2:	80 91 0f 20 	lds	r24, 0x200F
     6c6:	90 91 10 20 	lds	r25, 0x2010
     6ca:	2a 81       	ldd	r18, Y+2	; 0x02
     6cc:	2f 93       	push	r18
     6ce:	29 81       	ldd	r18, Y+1	; 0x01
     6d0:	2f 93       	push	r18
     6d2:	25 e6       	ldi	r18, 0x65	; 101
     6d4:	30 e2       	ldi	r19, 0x20	; 32
     6d6:	23 2f       	mov	r18, r19
     6d8:	2f 93       	push	r18
     6da:	25 e6       	ldi	r18, 0x65	; 101
     6dc:	30 e2       	ldi	r19, 0x20	; 32
     6de:	2f 93       	push	r18
     6e0:	29 2f       	mov	r18, r25
     6e2:	2f 93       	push	r18
     6e4:	8f 93       	push	r24
     6e6:	0e 94 70 18 	call	0x30e0	;  0x30e0
     6ea:	0f 90       	pop	r0
     6ec:	0f 90       	pop	r0
     6ee:	0f 90       	pop	r0
     6f0:	0f 90       	pop	r0
     6f2:	0f 90       	pop	r0
     6f4:	0f 90       	pop	r0
     6f6:	0e 94 be 03 	call	0x77c	;  0x77c
     6fa:	89 81       	ldd	r24, Y+1	; 0x01
     6fc:	9a 81       	ldd	r25, Y+2	; 0x02
     6fe:	84 36       	cpi	r24, 0x64	; 100
     700:	91 05       	cpc	r25, r1
     702:	11 f0       	breq	.+4      	;  0x708
     704:	0e 94 b6 03 	call	0x76c	;  0x76c
     708:	0e 94 6d 04 	call	0x8da	;  0x8da
     70c:	8b 81       	ldd	r24, Y+3	; 0x03
     70e:	8f 3f       	cpi	r24, 0xFF	; 255
     710:	79 f0       	breq	.+30     	;  0x730
     712:	0e 94 be 03 	call	0x77c	;  0x77c
     716:	89 81       	ldd	r24, Y+1	; 0x01
     718:	9a 81       	ldd	r25, Y+2	; 0x02
     71a:	84 36       	cpi	r24, 0x64	; 100
     71c:	91 05       	cpc	r25, r1
     71e:	19 f0       	breq	.+6      	;  0x726
     720:	0e 94 b6 03 	call	0x76c	;  0x76c
     724:	05 c0       	rjmp	.+10     	;  0x730
     726:	6f ef       	ldi	r22, 0xFF	; 255
     728:	80 e0       	ldi	r24, 0x00	; 0
     72a:	90 e0       	ldi	r25, 0x00	; 0
     72c:	0e 94 09 2b 	call	0x5612	;  0x5612
     730:	80 e0       	ldi	r24, 0x00	; 0
     732:	90 e0       	ldi	r25, 0x00	; 0
     734:	0e 94 f9 2a 	call	0x55f2	;  0x55f2
     738:	8b 83       	std	Y+3, r24	; 0x03
     73a:	0e 94 6d 04 	call	0x8da	;  0x8da
     73e:	8b 81       	ldd	r24, Y+3	; 0x03
     740:	8f 3f       	cpi	r24, 0xFF	; 255
     742:	11 f0       	breq	.+4      	;  0x748
     744:	0e 94 b6 03 	call	0x76c	;  0x76c
     748:	23 96       	adiw	r28, 0x03	; 3
     74a:	cd bf       	out	0x3d, r28	; 61
     74c:	de bf       	out	0x3e, r29	; 62
     74e:	df 91       	pop	r29
     750:	cf 91       	pop	r28
     752:	08 95       	ret
     754:	cf 93       	push	r28
     756:	df 93       	push	r29
     758:	cd b7       	in	r28, 0x3d	; 61
     75a:	de b7       	in	r29, 0x3e	; 62
     75c:	60 e0       	ldi	r22, 0x00	; 0
     75e:	80 e0       	ldi	r24, 0x00	; 0
     760:	90 e0       	ldi	r25, 0x00	; 0
     762:	0e 94 09 2b 	call	0x5612	;  0x5612
     766:	df 91       	pop	r29
     768:	cf 91       	pop	r28
     76a:	08 95       	ret
     76c:	cf 93       	push	r28
     76e:	df 93       	push	r29
     770:	cd b7       	in	r28, 0x3d	; 61
     772:	de b7       	in	r29, 0x3e	; 62
     774:	0e 94 aa 03 	call	0x754	;  0x754
     778:	0e 94 c8 27 	call	0x4f90	;  0x4f90
     77c:	cf 93       	push	r28
     77e:	df 93       	push	r29
     780:	cd b7       	in	r28, 0x3d	; 61
     782:	de b7       	in	r29, 0x3e	; 62
     784:	2a 97       	sbiw	r28, 0x0a	; 10
     786:	cd bf       	out	0x3d, r28	; 61
     788:	de bf       	out	0x3e, r29	; 62
     78a:	81 e0       	ldi	r24, 0x01	; 1
     78c:	90 e0       	ldi	r25, 0x00	; 0
     78e:	0e 94 f0 12 	call	0x25e0	;  0x25e0
     792:	83 70       	andi	r24, 0x03	; 3
     794:	99 27       	eor	r25, r25
     796:	89 83       	std	Y+1, r24	; 0x01
     798:	9a 83       	std	Y+2, r25	; 0x02
     79a:	89 81       	ldd	r24, Y+1	; 0x01
     79c:	9a 81       	ldd	r25, Y+2	; 0x02
     79e:	81 30       	cpi	r24, 0x01	; 1
     7a0:	91 05       	cpc	r25, r1
     7a2:	09 f4       	brne	.+2      	;  0x7a6
     7a4:	93 c0       	rjmp	.+294    	;  0x8cc
     7a6:	81 30       	cpi	r24, 0x01	; 1
     7a8:	91 05       	cpc	r25, r1
     7aa:	38 f0       	brcs	.+14     	;  0x7ba
     7ac:	82 30       	cpi	r24, 0x02	; 2
     7ae:	91 05       	cpc	r25, r1
     7b0:	c9 f0       	breq	.+50     	;  0x7e4
     7b2:	03 97       	sbiw	r24, 0x03	; 3
     7b4:	09 f4       	brne	.+2      	;  0x7b8
     7b6:	6d c0       	rjmp	.+218    	;  0x892
     7b8:	83 c0       	rjmp	.+262    	;  0x8c0
     7ba:	81 e0       	ldi	r24, 0x01	; 1
     7bc:	90 e0       	ldi	r25, 0x00	; 0
     7be:	0e 94 f0 12 	call	0x25e0	;  0x25e0
     7c2:	81 70       	andi	r24, 0x01	; 1
     7c4:	99 27       	eor	r25, r25
     7c6:	89 2b       	or	r24, r25
     7c8:	31 f0       	breq	.+12     	;  0x7d6
     7ca:	80 91 00 20 	lds	r24, 0x2000
     7ce:	8d 5f       	subi	r24, 0xFD	; 253
     7d0:	80 93 00 20 	sts	0x2000, r24
     7d4:	7c c0       	rjmp	.+248    	;  0x8ce
     7d6:	90 91 00 20 	lds	r25, 0x2000
     7da:	82 e0       	ldi	r24, 0x02	; 2
     7dc:	89 27       	eor	r24, r25
     7de:	80 93 00 20 	sts	0x2000, r24
     7e2:	75 c0       	rjmp	.+234    	;  0x8ce
     7e4:	80 91 01 20 	lds	r24, 0x2001
     7e8:	90 91 02 20 	lds	r25, 0x2002
     7ec:	a0 91 03 20 	lds	r26, 0x2003
     7f0:	b0 91 04 20 	lds	r27, 0x2004
     7f4:	81 70       	andi	r24, 0x01	; 1
     7f6:	99 27       	eor	r25, r25
     7f8:	aa 27       	eor	r26, r26
     7fa:	bb 27       	eor	r27, r27
     7fc:	89 2b       	or	r24, r25
     7fe:	8a 2b       	or	r24, r26
     800:	8b 2b       	or	r24, r27
     802:	49 f1       	breq	.+82     	;  0x856
     804:	80 91 01 20 	lds	r24, 0x2001
     808:	90 91 02 20 	lds	r25, 0x2002
     80c:	a0 91 03 20 	lds	r26, 0x2003
     810:	b0 91 04 20 	lds	r27, 0x2004
     814:	27 e0       	ldi	r18, 0x07	; 7
     816:	30 e0       	ldi	r19, 0x00	; 0
     818:	40 e0       	ldi	r20, 0x00	; 0
     81a:	50 e0       	ldi	r21, 0x00	; 0
     81c:	bc 01       	movw	r22, r24
     81e:	cd 01       	movw	r24, r26
     820:	0e 94 eb 24 	call	0x49d6	;  0x49d6
     824:	dc 01       	movw	r26, r24
     826:	cb 01       	movw	r24, r22
     828:	9c 01       	movw	r18, r24
     82a:	ad 01       	movw	r20, r26
     82c:	80 91 01 20 	lds	r24, 0x2001
     830:	90 91 02 20 	lds	r25, 0x2002
     834:	a0 91 03 20 	lds	r26, 0x2003
     838:	b0 91 04 20 	lds	r27, 0x2004
     83c:	82 0f       	add	r24, r18
     83e:	93 1f       	adc	r25, r19
     840:	a4 1f       	adc	r26, r20
     842:	b5 1f       	adc	r27, r21
     844:	80 93 01 20 	sts	0x2001, r24
     848:	90 93 02 20 	sts	0x2002, r25
     84c:	a0 93 03 20 	sts	0x2003, r26
     850:	b0 93 04 20 	sts	0x2004, r27
     854:	35 c0       	rjmp	.+106    	;  0x8c0
     856:	80 91 01 20 	lds	r24, 0x2001
     85a:	90 91 02 20 	lds	r25, 0x2002
     85e:	a0 91 03 20 	lds	r26, 0x2003
     862:	b0 91 04 20 	lds	r27, 0x2004
     866:	23 e0       	ldi	r18, 0x03	; 3
     868:	30 e0       	ldi	r19, 0x00	; 0
     86a:	40 e0       	ldi	r20, 0x00	; 0
     86c:	50 e0       	ldi	r21, 0x00	; 0
     86e:	bc 01       	movw	r22, r24
     870:	cd 01       	movw	r24, r26
     872:	0e 94 eb 24 	call	0x49d6	;  0x49d6
     876:	da 01       	movw	r26, r20
     878:	c9 01       	movw	r24, r18
     87a:	01 96       	adiw	r24, 0x01	; 1
     87c:	a1 1d       	adc	r26, r1
     87e:	b1 1d       	adc	r27, r1
     880:	80 93 01 20 	sts	0x2001, r24
     884:	90 93 02 20 	sts	0x2002, r25
     888:	a0 93 03 20 	sts	0x2003, r26
     88c:	b0 93 04 20 	sts	0x2004, r27
     890:	17 c0       	rjmp	.+46     	;  0x8c0
     892:	80 91 d6 21 	lds	r24, 0x21D6
     896:	8a 30       	cpi	r24, 0x0A	; 10
     898:	90 f4       	brcc	.+36     	;  0x8be
     89a:	81 e0       	ldi	r24, 0x01	; 1
     89c:	90 e0       	ldi	r25, 0x00	; 0
     89e:	0e 94 f0 12 	call	0x25e0	;  0x25e0
     8a2:	83 70       	andi	r24, 0x03	; 3
     8a4:	99 27       	eor	r25, r25
     8a6:	89 2b       	or	r24, r25
     8a8:	51 f4       	brne	.+20     	;  0x8be
     8aa:	80 91 d6 21 	lds	r24, 0x21D6
     8ae:	8f 5f       	subi	r24, 0xFF	; 255
     8b0:	80 93 d6 21 	sts	0x21D6, r24
     8b4:	0e 94 be 03 	call	0x77c	;  0x77c
     8b8:	10 92 d6 21 	sts	0x21D6, r1
     8bc:	00 c0       	rjmp	.+0      	;  0x8be
     8be:	00 00       	nop
     8c0:	80 91 00 20 	lds	r24, 0x2000
     8c4:	8f 5f       	subi	r24, 0xFF	; 255
     8c6:	80 93 00 20 	sts	0x2000, r24
     8ca:	01 c0       	rjmp	.+2      	;  0x8ce
     8cc:	00 00       	nop
     8ce:	2a 96       	adiw	r28, 0x0a	; 10
     8d0:	cd bf       	out	0x3d, r28	; 61
     8d2:	de bf       	out	0x3e, r29	; 62
     8d4:	df 91       	pop	r29
     8d6:	cf 91       	pop	r28
     8d8:	08 95       	ret
     8da:	cf 93       	push	r28
     8dc:	df 93       	push	r29
     8de:	cd b7       	in	r28, 0x3d	; 61
     8e0:	de b7       	in	r29, 0x3e	; 62
     8e2:	2a 97       	sbiw	r28, 0x0a	; 10
     8e4:	cd bf       	out	0x3d, r28	; 61
     8e6:	de bf       	out	0x3e, r29	; 62
     8e8:	0e 94 c2 15 	call	0x2b84	;  0x2b84
     8ec:	0e 94 59 13 	call	0x26b2	;  0x26b2
     8f0:	89 83       	std	Y+1, r24	; 0x01
     8f2:	9a 83       	std	Y+2, r25	; 0x02
     8f4:	1b 82       	std	Y+3, r1	; 0x03
     8f6:	1c 82       	std	Y+4, r1	; 0x04
     8f8:	09 c0       	rjmp	.+18     	;  0x90c
     8fa:	0e 94 59 13 	call	0x26b2	;  0x26b2
     8fe:	8d 83       	std	Y+5, r24	; 0x05
     900:	9e 83       	std	Y+6, r25	; 0x06
     902:	8b 81       	ldd	r24, Y+3	; 0x03
     904:	9c 81       	ldd	r25, Y+4	; 0x04
     906:	01 96       	adiw	r24, 0x01	; 1
     908:	8b 83       	std	Y+3, r24	; 0x03
     90a:	9c 83       	std	Y+4, r25	; 0x04
     90c:	8b 81       	ldd	r24, Y+3	; 0x03
     90e:	9c 81       	ldd	r25, Y+4	; 0x04
     910:	8f 3f       	cpi	r24, 0xFF	; 255
     912:	91 05       	cpc	r25, r1
     914:	91 f3       	breq	.-28     	;  0x8fa
     916:	88 f3       	brcs	.-30     	;  0x8fa
     918:	0e 94 59 13 	call	0x26b2	;  0x26b2
     91c:	8d 83       	std	Y+5, r24	; 0x05
     91e:	9e 83       	std	Y+6, r25	; 0x06
     920:	29 81       	ldd	r18, Y+1	; 0x01
     922:	3a 81       	ldd	r19, Y+2	; 0x02
     924:	8d 81       	ldd	r24, Y+5	; 0x05
     926:	9e 81       	ldd	r25, Y+6	; 0x06
     928:	28 17       	cp	r18, r24
     92a:	39 07       	cpc	r19, r25
     92c:	51 f5       	brne	.+84     	;  0x982
     92e:	0e 94 59 13 	call	0x26b2	;  0x26b2
     932:	89 83       	std	Y+1, r24	; 0x01
     934:	9a 83       	std	Y+2, r25	; 0x02
     936:	1b 82       	std	Y+3, r1	; 0x03
     938:	1c 82       	std	Y+4, r1	; 0x04
     93a:	09 c0       	rjmp	.+18     	;  0x94e
     93c:	0e 94 59 13 	call	0x26b2	;  0x26b2
     940:	8d 83       	std	Y+5, r24	; 0x05
     942:	9e 83       	std	Y+6, r25	; 0x06
     944:	8b 81       	ldd	r24, Y+3	; 0x03
     946:	9c 81       	ldd	r25, Y+4	; 0x04
     948:	01 96       	adiw	r24, 0x01	; 1
     94a:	8b 83       	std	Y+3, r24	; 0x03
     94c:	9c 83       	std	Y+4, r25	; 0x04
     94e:	8b 81       	ldd	r24, Y+3	; 0x03
     950:	9c 81       	ldd	r25, Y+4	; 0x04
     952:	81 15       	cp	r24, r1
     954:	94 40       	sbci	r25, 0x04	; 4
     956:	90 f3       	brcs	.-28     	;  0x93c
     958:	0e 94 59 13 	call	0x26b2	;  0x26b2
     95c:	8d 83       	std	Y+5, r24	; 0x05
     95e:	9e 83       	std	Y+6, r25	; 0x06
     960:	29 81       	ldd	r18, Y+1	; 0x01
     962:	3a 81       	ldd	r19, Y+2	; 0x02
     964:	8d 81       	ldd	r24, Y+5	; 0x05
     966:	9e 81       	ldd	r25, Y+6	; 0x06
     968:	28 17       	cp	r18, r24
     96a:	39 07       	cpc	r19, r25
     96c:	51 f4       	brne	.+20     	;  0x982
     96e:	80 91 0f 20 	lds	r24, 0x200F
     972:	90 91 10 20 	lds	r25, 0x2010
     976:	6c e6       	ldi	r22, 0x6C	; 108
     978:	70 e2       	ldi	r23, 0x20	; 32
     97a:	0e 94 4b 18 	call	0x3096	;  0x3096
     97e:	0e 94 c8 27 	call	0x4f90	;  0x4f90
     982:	89 81       	ldd	r24, Y+1	; 0x01
     984:	9a 81       	ldd	r25, Y+2	; 0x02
     986:	81 30       	cpi	r24, 0x01	; 1
     988:	92 40       	sbci	r25, 0x02	; 2
     98a:	48 f0       	brcs	.+18     	;  0x99e
     98c:	89 81       	ldd	r24, Y+1	; 0x01
     98e:	9a 81       	ldd	r25, Y+2	; 0x02
     990:	88 0f       	add	r24, r24
     992:	89 2f       	mov	r24, r25
     994:	88 1f       	adc	r24, r24
     996:	99 0b       	sbc	r25, r25
     998:	91 95       	neg	r25
     99a:	89 83       	std	Y+1, r24	; 0x01
     99c:	9a 83       	std	Y+2, r25	; 0x02
     99e:	1f 82       	std	Y+7, r1	; 0x07
     9a0:	18 86       	std	Y+8, r1	; 0x08
     9a2:	89 81       	ldd	r24, Y+1	; 0x01
     9a4:	9a 81       	ldd	r25, Y+2	; 0x02
     9a6:	89 87       	std	Y+9, r24	; 0x09
     9a8:	9a 87       	std	Y+10, r25	; 0x0a
     9aa:	0e c0       	rjmp	.+28     	;  0x9c8
     9ac:	0e 94 be 03 	call	0x77c	;  0x77c
     9b0:	8f 81       	ldd	r24, Y+7	; 0x07
     9b2:	98 85       	ldd	r25, Y+8	; 0x08
     9b4:	01 96       	adiw	r24, 0x01	; 1
     9b6:	8f 83       	std	Y+7, r24	; 0x07
     9b8:	98 87       	std	Y+8, r25	; 0x08
     9ba:	0e 94 be 03 	call	0x77c	;  0x77c
     9be:	89 85       	ldd	r24, Y+9	; 0x09
     9c0:	9a 85       	ldd	r25, Y+10	; 0x0a
     9c2:	01 97       	sbiw	r24, 0x01	; 1
     9c4:	89 87       	std	Y+9, r24	; 0x09
     9c6:	9a 87       	std	Y+10, r25	; 0x0a
     9c8:	2f 81       	ldd	r18, Y+7	; 0x07
     9ca:	38 85       	ldd	r19, Y+8	; 0x08
     9cc:	89 81       	ldd	r24, Y+1	; 0x01
     9ce:	9a 81       	ldd	r25, Y+2	; 0x02
     9d0:	28 17       	cp	r18, r24
     9d2:	39 07       	cpc	r19, r25
     9d4:	20 f4       	brcc	.+8      	;  0x9de
     9d6:	89 85       	ldd	r24, Y+9	; 0x09
     9d8:	9a 85       	ldd	r25, Y+10	; 0x0a
     9da:	89 2b       	or	r24, r25
     9dc:	39 f7       	brne	.-50     	;  0x9ac
     9de:	2f 81       	ldd	r18, Y+7	; 0x07
     9e0:	38 85       	ldd	r19, Y+8	; 0x08
     9e2:	89 81       	ldd	r24, Y+1	; 0x01
     9e4:	9a 81       	ldd	r25, Y+2	; 0x02
     9e6:	28 17       	cp	r18, r24
     9e8:	39 07       	cpc	r19, r25
     9ea:	21 f4       	brne	.+8      	;  0x9f4
     9ec:	89 85       	ldd	r24, Y+9	; 0x09
     9ee:	9a 85       	ldd	r25, Y+10	; 0x0a
     9f0:	89 2b       	or	r24, r25
     9f2:	11 f0       	breq	.+4      	;  0x9f8
     9f4:	0e 94 b6 03 	call	0x76c	;  0x76c
     9f8:	0e 94 be 03 	call	0x77c	;  0x77c
     9fc:	2a 96       	adiw	r28, 0x0a	; 10
     9fe:	cd bf       	out	0x3d, r28	; 61
     a00:	de bf       	out	0x3e, r29	; 62
     a02:	df 91       	pop	r29
     a04:	cf 91       	pop	r28
     a06:	08 95       	ret
     a08:	cf 93       	push	r28
     a0a:	df 93       	push	r29
     a0c:	cd b7       	in	r28, 0x3d	; 61
     a0e:	de b7       	in	r29, 0x3e	; 62
     a10:	2a 97       	sbiw	r28, 0x0a	; 10
     a12:	cd bf       	out	0x3d, r28	; 61
     a14:	de bf       	out	0x3e, r29	; 62
     a16:	86 e9       	ldi	r24, 0x96	; 150
     a18:	89 83       	std	Y+1, r24	; 0x01
     a1a:	80 e8       	ldi	r24, 0x80	; 128
     a1c:	8a 83       	std	Y+2, r24	; 0x02
     a1e:	82 e0       	ldi	r24, 0x02	; 2
     a20:	8b 83       	std	Y+3, r24	; 0x03
     a22:	0e 94 6d 04 	call	0x8da	;  0x8da
     a26:	0e 94 59 13 	call	0x26b2	;  0x26b2
     a2a:	98 2f       	mov	r25, r24
     a2c:	8a 81       	ldd	r24, Y+2	; 0x02
     a2e:	89 2b       	or	r24, r25
     a30:	8c 83       	std	Y+4, r24	; 0x04
     a32:	0e 94 6d 04 	call	0x8da	;  0x8da
     a36:	0e 94 6d 04 	call	0x8da	;  0x8da
     a3a:	1a 86       	std	Y+10, r1	; 0x0a
     a3c:	84 eb       	ldi	r24, 0xB4	; 180
     a3e:	89 87       	std	Y+9, r24	; 0x09
     a40:	0e 94 be 03 	call	0x77c	;  0x77c
     a44:	1e 82       	std	Y+6, r1	; 0x06
     a46:	57 c0       	rjmp	.+174    	;  0xaf6
     a48:	0e 94 6d 04 	call	0x8da	;  0x8da
     a4c:	0e 94 59 13 	call	0x26b2	;  0x26b2
     a50:	80 68       	ori	r24, 0x80	; 128
     a52:	8d 83       	std	Y+5, r24	; 0x05
     a54:	0e 94 be 03 	call	0x77c	;  0x77c
     a58:	1f 82       	std	Y+7, r1	; 0x07
     a5a:	17 c0       	rjmp	.+46     	;  0xa8a
     a5c:	0e 94 be 03 	call	0x77c	;  0x77c
     a60:	18 86       	std	Y+8, r1	; 0x08
     a62:	0c c0       	rjmp	.+24     	;  0xa7c
     a64:	0e 94 be 03 	call	0x77c	;  0x77c
     a68:	8e 81       	ldd	r24, Y+6	; 0x06
     a6a:	83 30       	cpi	r24, 0x03	; 3
     a6c:	10 f0       	brcs	.+4      	;  0xa72
     a6e:	0e 94 b6 03 	call	0x76c	;  0x76c
     a72:	0e 94 be 03 	call	0x77c	;  0x77c
     a76:	88 85       	ldd	r24, Y+8	; 0x08
     a78:	8f 5f       	subi	r24, 0xFF	; 255
     a7a:	88 87       	std	Y+8, r24	; 0x08
     a7c:	98 85       	ldd	r25, Y+8	; 0x08
     a7e:	8d 81       	ldd	r24, Y+5	; 0x05
     a80:	98 17       	cp	r25, r24
     a82:	80 f3       	brcs	.-32     	;  0xa64
     a84:	8f 81       	ldd	r24, Y+7	; 0x07
     a86:	8f 5f       	subi	r24, 0xFF	; 255
     a88:	8f 83       	std	Y+7, r24	; 0x07
     a8a:	9f 81       	ldd	r25, Y+7	; 0x07
     a8c:	8c 81       	ldd	r24, Y+4	; 0x04
     a8e:	98 17       	cp	r25, r24
     a90:	28 f3       	brcs	.-54     	;  0xa5c
     a92:	0e 94 6d 04 	call	0x8da	;  0x8da
     a96:	8e 81       	ldd	r24, Y+6	; 0x06
     a98:	81 30       	cpi	r24, 0x01	; 1
     a9a:	99 f4       	brne	.+38     	;  0xac2
     a9c:	0e 94 be 03 	call	0x77c	;  0x77c
     aa0:	8f 81       	ldd	r24, Y+7	; 0x07
     aa2:	88 23       	and	r24, r24
     aa4:	64 f4       	brge	.+24     	;  0xabe
     aa6:	0e 94 6d 04 	call	0x8da	;  0x8da
     aaa:	98 85       	ldd	r25, Y+8	; 0x08
     aac:	8a 81       	ldd	r24, Y+2	; 0x02
     aae:	98 17       	cp	r25, r24
     ab0:	18 f0       	brcs	.+6      	;  0xab8
     ab2:	8b e4       	ldi	r24, 0x4B	; 75
     ab4:	89 87       	std	Y+9, r24	; 0x09
     ab6:	05 c0       	rjmp	.+10     	;  0xac2
     ab8:	0e 94 b6 03 	call	0x76c	;  0x76c
     abc:	02 c0       	rjmp	.+4      	;  0xac2
     abe:	0e 94 b6 03 	call	0x76c	;  0x76c
     ac2:	0e 94 6d 04 	call	0x8da	;  0x8da
     ac6:	98 85       	ldd	r25, Y+8	; 0x08
     ac8:	8d 81       	ldd	r24, Y+5	; 0x05
     aca:	98 17       	cp	r25, r24
     acc:	69 f4       	brne	.+26     	;  0xae8
     ace:	0e 94 6d 04 	call	0x8da	;  0x8da
     ad2:	9f 81       	ldd	r25, Y+7	; 0x07
     ad4:	8c 81       	ldd	r24, Y+4	; 0x04
     ad6:	98 17       	cp	r25, r24
     ad8:	21 f4       	brne	.+8      	;  0xae2
     ada:	8a 85       	ldd	r24, Y+10	; 0x0a
     adc:	8f 5f       	subi	r24, 0xFF	; 255
     ade:	8a 87       	std	Y+10, r24	; 0x0a
     ae0:	05 c0       	rjmp	.+10     	;  0xaec
     ae2:	0e 94 b6 03 	call	0x76c	;  0x76c
     ae6:	02 c0       	rjmp	.+4      	;  0xaec
     ae8:	0e 94 b6 03 	call	0x76c	;  0x76c
     aec:	0e 94 6d 04 	call	0x8da	;  0x8da
     af0:	8e 81       	ldd	r24, Y+6	; 0x06
     af2:	8f 5f       	subi	r24, 0xFF	; 255
     af4:	8e 83       	std	Y+6, r24	; 0x06
     af6:	9e 81       	ldd	r25, Y+6	; 0x06
     af8:	8b 81       	ldd	r24, Y+3	; 0x03
     afa:	98 17       	cp	r25, r24
     afc:	08 f4       	brcc	.+2      	;  0xb00
     afe:	a4 cf       	rjmp	.-184    	;  0xa48
     b00:	0e 94 be 03 	call	0x77c	;  0x77c
     b04:	89 85       	ldd	r24, Y+9	; 0x09
     b06:	8b 34       	cpi	r24, 0x4B	; 75
     b08:	31 f5       	brne	.+76     	;  0xb56
     b0a:	0e 94 6d 04 	call	0x8da	;  0x8da
     b0e:	8e 81       	ldd	r24, Y+6	; 0x06
     b10:	82 30       	cpi	r24, 0x02	; 2
     b12:	f1 f4       	brne	.+60     	;  0xb50
     b14:	0e 94 be 03 	call	0x77c	;  0x77c
     b18:	9f 81       	ldd	r25, Y+7	; 0x07
     b1a:	8a 81       	ldd	r24, Y+2	; 0x02
     b1c:	98 17       	cp	r25, r24
     b1e:	a8 f0       	brcs	.+42     	;  0xb4a
     b20:	0e 94 6d 04 	call	0x8da	;  0x8da
     b24:	0e 94 be 03 	call	0x77c	;  0x77c
     b28:	88 85       	ldd	r24, Y+8	; 0x08
     b2a:	8e 37       	cpi	r24, 0x7E	; 126
     b2c:	58 f0       	brcs	.+22     	;  0xb44
     b2e:	0e 94 6d 04 	call	0x8da	;  0x8da
     b32:	8a 85       	ldd	r24, Y+10	; 0x0a
     b34:	82 30       	cpi	r24, 0x02	; 2
     b36:	18 f0       	brcs	.+6      	;  0xb3e
     b38:	89 e6       	ldi	r24, 0x69	; 105
     b3a:	89 83       	std	Y+1, r24	; 0x01
     b3c:	0e c0       	rjmp	.+28     	;  0xb5a
     b3e:	0e 94 b6 03 	call	0x76c	;  0x76c
     b42:	0b c0       	rjmp	.+22     	;  0xb5a
     b44:	0e 94 b6 03 	call	0x76c	;  0x76c
     b48:	08 c0       	rjmp	.+16     	;  0xb5a
     b4a:	0e 94 b6 03 	call	0x76c	;  0x76c
     b4e:	05 c0       	rjmp	.+10     	;  0xb5a
     b50:	0e 94 b6 03 	call	0x76c	;  0x76c
     b54:	02 c0       	rjmp	.+4      	;  0xb5a
     b56:	0e 94 b6 03 	call	0x76c	;  0x76c
     b5a:	89 81       	ldd	r24, Y+1	; 0x01
     b5c:	2a 96       	adiw	r28, 0x0a	; 10
     b5e:	cd bf       	out	0x3d, r28	; 61
     b60:	de bf       	out	0x3e, r29	; 62
     b62:	df 91       	pop	r29
     b64:	cf 91       	pop	r28
     b66:	08 95       	ret
     b68:	cf 93       	push	r28
     b6a:	df 93       	push	r29
     b6c:	cd b7       	in	r28, 0x3d	; 61
     b6e:	de b7       	in	r29, 0x3e	; 62
     b70:	80 e5       	ldi	r24, 0x50	; 80
     b72:	90 e0       	ldi	r25, 0x00	; 0
     b74:	20 e5       	ldi	r18, 0x50	; 80
     b76:	30 e0       	ldi	r19, 0x00	; 0
     b78:	f9 01       	movw	r30, r18
     b7a:	20 81       	ld	r18, Z
     b7c:	22 60       	ori	r18, 0x02	; 2
     b7e:	fc 01       	movw	r30, r24
     b80:	20 83       	st	Z, r18
     b82:	00 00       	nop
     b84:	81 e5       	ldi	r24, 0x51	; 81
     b86:	90 e0       	ldi	r25, 0x00	; 0
     b88:	fc 01       	movw	r30, r24
     b8a:	80 81       	ld	r24, Z
     b8c:	88 2f       	mov	r24, r24
     b8e:	90 e0       	ldi	r25, 0x00	; 0
     b90:	82 70       	andi	r24, 0x02	; 2
     b92:	99 27       	eor	r25, r25
     b94:	89 2b       	or	r24, r25
     b96:	b1 f3       	breq	.-20     	;  0xb84
     b98:	88 ed       	ldi	r24, 0xD8	; 216
     b9a:	84 bf       	out	0x34, r24	; 52
     b9c:	81 e0       	ldi	r24, 0x01	; 1
     b9e:	80 93 40 00 	sts	0x0040, r24
     ba2:	80 e5       	ldi	r24, 0x50	; 80
     ba4:	90 e0       	ldi	r25, 0x00	; 0
     ba6:	20 e5       	ldi	r18, 0x50	; 80
     ba8:	30 e0       	ldi	r19, 0x00	; 0
     baa:	f9 01       	movw	r30, r18
     bac:	20 81       	ld	r18, Z
     bae:	2e 7f       	andi	r18, 0xFE	; 254
     bb0:	fc 01       	movw	r30, r24
     bb2:	20 83       	st	Z, r18
     bb4:	df 91       	pop	r29
     bb6:	cf 91       	pop	r28
     bb8:	08 95       	ret
     bba:	0f 93       	push	r16
     bbc:	1f 93       	push	r17
     bbe:	cf 93       	push	r28
     bc0:	df 93       	push	r29
     bc2:	cd b7       	in	r28, 0x3d	; 61
     bc4:	de b7       	in	r29, 0x3e	; 62
     bc6:	a1 97       	sbiw	r28, 0x21	; 33
     bc8:	cd bf       	out	0x3d, r28	; 61
     bca:	de bf       	out	0x3e, r29	; 62
     bcc:	84 e6       	ldi	r24, 0x64	; 100
     bce:	90 e0       	ldi	r25, 0x00	; 0
     bd0:	80 93 8f 22 	sts	0x228F, r24
     bd4:	90 93 90 22 	sts	0x2290, r25
     bd8:	80 91 8f 22 	lds	r24, 0x228F
     bdc:	90 91 90 22 	lds	r25, 0x2290
     be0:	9c 01       	movw	r18, r24
     be2:	42 e2       	ldi	r20, 0x22	; 34
     be4:	42 9f       	mul	r20, r18
     be6:	c0 01       	movw	r24, r0
     be8:	43 9f       	mul	r20, r19
     bea:	90 0d       	add	r25, r0
     bec:	11 24       	eor	r1, r1
     bee:	0e 94 70 25 	call	0x4ae0	;  0x4ae0
     bf2:	80 93 93 22 	sts	0x2293, r24
     bf6:	90 93 94 22 	sts	0x2294, r25
     bfa:	0e 94 6d 04 	call	0x8da	;  0x8da
     bfe:	19 82       	std	Y+1, r1	; 0x01
     c00:	16 c0       	rjmp	.+44     	;  0xc2e
     c02:	20 91 93 22 	lds	r18, 0x2293
     c06:	30 91 94 22 	lds	r19, 0x2294
     c0a:	89 81       	ldd	r24, Y+1	; 0x01
     c0c:	48 2f       	mov	r20, r24
     c0e:	88 0f       	add	r24, r24
     c10:	55 0b       	sbc	r21, r21
     c12:	62 e2       	ldi	r22, 0x22	; 34
     c14:	64 9f       	mul	r22, r20
     c16:	c0 01       	movw	r24, r0
     c18:	65 9f       	mul	r22, r21
     c1a:	90 0d       	add	r25, r0
     c1c:	11 24       	eor	r1, r1
     c1e:	82 0f       	add	r24, r18
     c20:	93 1f       	adc	r25, r19
     c22:	fc 01       	movw	r30, r24
     c24:	10 a2       	std	Z+32, r1	; 0x20
     c26:	11 a2       	std	Z+33, r1	; 0x21
     c28:	89 81       	ldd	r24, Y+1	; 0x01
     c2a:	8f 5f       	subi	r24, 0xFF	; 255
     c2c:	89 83       	std	Y+1, r24	; 0x01
     c2e:	89 81       	ldd	r24, Y+1	; 0x01
     c30:	28 2f       	mov	r18, r24
     c32:	88 0f       	add	r24, r24
     c34:	33 0b       	sbc	r19, r19
     c36:	80 91 8f 22 	lds	r24, 0x228F
     c3a:	90 91 90 22 	lds	r25, 0x2290
     c3e:	28 17       	cp	r18, r24
     c40:	39 07       	cpc	r19, r25
     c42:	fc f2       	brlt	.-66     	;  0xc02
     c44:	0e 94 6d 04 	call	0x8da	;  0x8da
     c48:	83 e6       	ldi	r24, 0x63	; 99
     c4a:	90 e0       	ldi	r25, 0x00	; 0
     c4c:	80 93 91 22 	sts	0x2291, r24
     c50:	90 93 92 22 	sts	0x2292, r25
     c54:	80 e2       	ldi	r24, 0x20	; 32
     c56:	e5 e9       	ldi	r30, 0x95	; 149
     c58:	f0 e2       	ldi	r31, 0x20	; 32
     c5a:	de 01       	movw	r26, r28
     c5c:	12 96       	adiw	r26, 0x02	; 2
     c5e:	01 90       	ld	r0, Z+
     c60:	0d 92       	st	X+, r0
     c62:	8a 95       	dec	r24
     c64:	e1 f7       	brne	.-8      	;  0xc5e
     c66:	20 91 93 22 	lds	r18, 0x2293
     c6a:	30 91 94 22 	lds	r19, 0x2294
     c6e:	80 91 91 22 	lds	r24, 0x2291
     c72:	90 91 92 22 	lds	r25, 0x2292
     c76:	ac 01       	movw	r20, r24
     c78:	62 e2       	ldi	r22, 0x22	; 34
     c7a:	64 9f       	mul	r22, r20
     c7c:	c0 01       	movw	r24, r0
     c7e:	65 9f       	mul	r22, r21
     c80:	90 0d       	add	r25, r0
     c82:	11 24       	eor	r1, r1
     c84:	82 0f       	add	r24, r18
     c86:	93 1f       	adc	r25, r19
     c88:	9c 01       	movw	r18, r24
     c8a:	80 e2       	ldi	r24, 0x20	; 32
     c8c:	fe 01       	movw	r30, r28
     c8e:	32 96       	adiw	r30, 0x02	; 2
     c90:	d9 01       	movw	r26, r18
     c92:	01 90       	ld	r0, Z+
     c94:	0d 92       	st	X+, r0
     c96:	8a 95       	dec	r24
     c98:	e1 f7       	brne	.-8      	;  0xc92
     c9a:	20 91 93 22 	lds	r18, 0x2293
     c9e:	30 91 94 22 	lds	r19, 0x2294
     ca2:	80 91 91 22 	lds	r24, 0x2291
     ca6:	90 91 92 22 	lds	r25, 0x2292
     caa:	ac 01       	movw	r20, r24
     cac:	62 e2       	ldi	r22, 0x22	; 34
     cae:	64 9f       	mul	r22, r20
     cb0:	c0 01       	movw	r24, r0
     cb2:	65 9f       	mul	r22, r21
     cb4:	90 0d       	add	r25, r0
     cb6:	11 24       	eor	r1, r1
     cb8:	89 01       	movw	r16, r18
     cba:	08 0f       	add	r16, r24
     cbc:	19 1f       	adc	r17, r25
     cbe:	89 e0       	ldi	r24, 0x09	; 9
     cc0:	90 e0       	ldi	r25, 0x00	; 0
     cc2:	0e 94 70 25 	call	0x4ae0	;  0x4ae0
     cc6:	f8 01       	movw	r30, r16
     cc8:	80 a3       	std	Z+32, r24	; 0x20
     cca:	91 a3       	std	Z+33, r25	; 0x21
     ccc:	20 91 93 22 	lds	r18, 0x2293
     cd0:	30 91 94 22 	lds	r19, 0x2294
     cd4:	80 91 91 22 	lds	r24, 0x2291
     cd8:	90 91 92 22 	lds	r25, 0x2292
     cdc:	ac 01       	movw	r20, r24
     cde:	62 e2       	ldi	r22, 0x22	; 34
     ce0:	64 9f       	mul	r22, r20
     ce2:	c0 01       	movw	r24, r0
     ce4:	65 9f       	mul	r22, r21
     ce6:	90 0d       	add	r25, r0
     ce8:	11 24       	eor	r1, r1
     cea:	82 0f       	add	r24, r18
     cec:	93 1f       	adc	r25, r19
     cee:	fc 01       	movw	r30, r24
     cf0:	80 a1       	ldd	r24, Z+32	; 0x20
     cf2:	91 a1       	ldd	r25, Z+33	; 0x21
     cf4:	29 e0       	ldi	r18, 0x09	; 9
     cf6:	ec e8       	ldi	r30, 0x8C	; 140
     cf8:	f0 e2       	ldi	r31, 0x20	; 32
     cfa:	dc 01       	movw	r26, r24
     cfc:	01 90       	ld	r0, Z+
     cfe:	0d 92       	st	X+, r0
     d00:	2a 95       	dec	r18
     d02:	e1 f7       	brne	.-8      	;  0xcfc
     d04:	a1 96       	adiw	r28, 0x21	; 33
     d06:	cd bf       	out	0x3d, r28	; 61
     d08:	de bf       	out	0x3e, r29	; 62
     d0a:	df 91       	pop	r29
     d0c:	cf 91       	pop	r28
     d0e:	1f 91       	pop	r17
     d10:	0f 91       	pop	r16
     d12:	08 95       	ret
     d14:	ef 92       	push	r14
     d16:	ff 92       	push	r15
     d18:	0f 93       	push	r16
     d1a:	1f 93       	push	r17
     d1c:	cf 93       	push	r28
     d1e:	df 93       	push	r29
     d20:	cd b7       	in	r28, 0x3d	; 61
     d22:	de b7       	in	r29, 0x3e	; 62
     d24:	cc 54       	subi	r28, 0x4C	; 76
     d26:	d1 09       	sbc	r29, r1
     d28:	cd bf       	out	0x3d, r28	; 61
     d2a:	de bf       	out	0x3e, r29	; 62
     d2c:	9e 01       	movw	r18, r28
     d2e:	25 5b       	subi	r18, 0xB5	; 181
     d30:	3f 4f       	sbci	r19, 0xFF	; 255
     d32:	d9 01       	movw	r26, r18
     d34:	8d 93       	st	X+, r24
     d36:	9c 93       	st	X, r25
     d38:	0d b7       	in	r16, 0x3d	; 61
     d3a:	1e b7       	in	r17, 0x3e	; 62
     d3c:	ce 01       	movw	r24, r28
     d3e:	85 5b       	subi	r24, 0xB5	; 181
     d40:	9f 4f       	sbci	r25, 0xFF	; 255
     d42:	fc 01       	movw	r30, r24
     d44:	80 81       	ld	r24, Z
     d46:	91 81       	ldd	r25, Z+1	; 0x01
     d48:	6a e3       	ldi	r22, 0x3A	; 58
     d4a:	70 e0       	ldi	r23, 0x00	; 0
     d4c:	0e 94 0e 28 	call	0x501c	;  0x501c
     d50:	8a 83       	std	Y+2, r24	; 0x02
     d52:	9b 83       	std	Y+3, r25	; 0x03
     d54:	ce 01       	movw	r24, r28
     d56:	86 5b       	subi	r24, 0xB6	; 182
     d58:	9f 4f       	sbci	r25, 0xFF	; 255
     d5a:	dc 01       	movw	r26, r24
     d5c:	1c 92       	st	X, r1
     d5e:	8a 81       	ldd	r24, Y+2	; 0x02
     d60:	9b 81       	ldd	r25, Y+3	; 0x03
     d62:	89 2b       	or	r24, r25
     d64:	09 f4       	brne	.+2      	;  0xd68
     d66:	c2 c2       	rjmp	.+1412   	;  0x12ec
     d68:	ce 01       	movw	r24, r28
     d6a:	86 5b       	subi	r24, 0xB6	; 182
     d6c:	9f 4f       	sbci	r25, 0xFF	; 255
     d6e:	fc 01       	movw	r30, r24
     d70:	90 81       	ld	r25, Z
     d72:	81 e0       	ldi	r24, 0x01	; 1
     d74:	29 2f       	mov	r18, r25
     d76:	28 27       	eor	r18, r24
     d78:	ce 01       	movw	r24, r28
     d7a:	86 5b       	subi	r24, 0xB6	; 182
     d7c:	9f 4f       	sbci	r25, 0xFF	; 255
     d7e:	dc 01       	movw	r26, r24
     d80:	2c 93       	st	X, r18
     d82:	8a 81       	ldd	r24, Y+2	; 0x02
     d84:	9b 81       	ldd	r25, Y+3	; 0x03
     d86:	01 96       	adiw	r24, 0x01	; 1
     d88:	6a e3       	ldi	r22, 0x3A	; 58
     d8a:	70 e0       	ldi	r23, 0x00	; 0
     d8c:	0e 94 0e 28 	call	0x501c	;  0x501c
     d90:	8c 83       	std	Y+4, r24	; 0x04
     d92:	9d 83       	std	Y+5, r25	; 0x05
     d94:	8c 81       	ldd	r24, Y+4	; 0x04
     d96:	9d 81       	ldd	r25, Y+5	; 0x05
     d98:	89 2b       	or	r24, r25
     d9a:	09 f4       	brne	.+2      	;  0xd9e
     d9c:	a7 c2       	rjmp	.+1358   	;  0x12ec
     d9e:	8d b7       	in	r24, 0x3d	; 61
     da0:	9e b7       	in	r25, 0x3e	; 62
     da2:	7c 01       	movw	r14, r24
     da4:	ce 01       	movw	r24, r28
     da6:	86 5b       	subi	r24, 0xB6	; 182
     da8:	9f 4f       	sbci	r25, 0xFF	; 255
     daa:	fc 01       	movw	r30, r24
     dac:	90 81       	ld	r25, Z
     dae:	82 e0       	ldi	r24, 0x02	; 2
     db0:	29 2f       	mov	r18, r25
     db2:	28 27       	eor	r18, r24
     db4:	ce 01       	movw	r24, r28
     db6:	86 5b       	subi	r24, 0xB6	; 182
     db8:	9f 4f       	sbci	r25, 0xFF	; 255
     dba:	dc 01       	movw	r26, r24
     dbc:	2c 93       	st	X, r18
     dbe:	ce 01       	movw	r24, r28
     dc0:	85 5b       	subi	r24, 0xB5	; 181
     dc2:	9f 4f       	sbci	r25, 0xFF	; 255
     dc4:	fc 01       	movw	r30, r24
     dc6:	80 81       	ld	r24, Z
     dc8:	91 81       	ldd	r25, Z+1	; 0x01
     dca:	6d e2       	ldi	r22, 0x2D	; 45
     dcc:	70 e0       	ldi	r23, 0x00	; 0
     dce:	0e 94 0e 28 	call	0x501c	;  0x501c
     dd2:	8e 83       	std	Y+6, r24	; 0x06
     dd4:	9f 83       	std	Y+7, r25	; 0x07
     dd6:	8e 81       	ldd	r24, Y+6	; 0x06
     dd8:	9f 81       	ldd	r25, Y+7	; 0x07
     dda:	89 2b       	or	r24, r25
     ddc:	49 f0       	breq	.+18     	;  0xdf0
     dde:	2e 81       	ldd	r18, Y+6	; 0x06
     de0:	3f 81       	ldd	r19, Y+7	; 0x07
     de2:	8c 81       	ldd	r24, Y+4	; 0x04
     de4:	9d 81       	ldd	r25, Y+5	; 0x05
     de6:	28 17       	cp	r18, r24
     de8:	39 07       	cpc	r19, r25
     dea:	10 f4       	brcc	.+4      	;  0xdf0
     dec:	8f ef       	ldi	r24, 0xFF	; 255
     dee:	7b c2       	rjmp	.+1270   	;  0x12e6
     df0:	ce 01       	movw	r24, r28
     df2:	86 5b       	subi	r24, 0xB6	; 182
     df4:	9f 4f       	sbci	r25, 0xFF	; 255
     df6:	dc 01       	movw	r26, r24
     df8:	9c 91       	ld	r25, X
     dfa:	84 e0       	ldi	r24, 0x04	; 4
     dfc:	29 2f       	mov	r18, r25
     dfe:	28 27       	eor	r18, r24
     e00:	ce 01       	movw	r24, r28
     e02:	86 5b       	subi	r24, 0xB6	; 182
     e04:	9f 4f       	sbci	r25, 0xFF	; 255
     e06:	fc 01       	movw	r30, r24
     e08:	20 83       	st	Z, r18
     e0a:	2a 81       	ldd	r18, Y+2	; 0x02
     e0c:	3b 81       	ldd	r19, Y+3	; 0x03
     e0e:	ce 01       	movw	r24, r28
     e10:	85 5b       	subi	r24, 0xB5	; 181
     e12:	9f 4f       	sbci	r25, 0xFF	; 255
     e14:	dc 01       	movw	r26, r24
     e16:	8d 91       	ld	r24, X+
     e18:	9c 91       	ld	r25, X
     e1a:	f9 01       	movw	r30, r18
     e1c:	e8 1b       	sub	r30, r24
     e1e:	f9 0b       	sbc	r31, r25
     e20:	cf 01       	movw	r24, r30
     e22:	09 2e       	mov	r0, r25
     e24:	00 0c       	add	r0, r0
     e26:	aa 0b       	sbc	r26, r26
     e28:	bb 0b       	sbc	r27, r27
     e2a:	88 87       	std	Y+8, r24	; 0x08
     e2c:	99 87       	std	Y+9, r25	; 0x09
     e2e:	aa 87       	std	Y+10, r26	; 0x0a
     e30:	bb 87       	std	Y+11, r27	; 0x0b
     e32:	88 85       	ldd	r24, Y+8	; 0x08
     e34:	99 85       	ldd	r25, Y+9	; 0x09
     e36:	aa 85       	ldd	r26, Y+10	; 0x0a
     e38:	bb 85       	ldd	r27, Y+11	; 0x0b
     e3a:	01 96       	adiw	r24, 0x01	; 1
     e3c:	a1 1d       	adc	r26, r1
     e3e:	b1 1d       	adc	r27, r1
     e40:	9c 01       	movw	r18, r24
     e42:	21 50       	subi	r18, 0x01	; 1
     e44:	31 09       	sbc	r19, r1
     e46:	2c 87       	std	Y+12, r18	; 0x0c
     e48:	3d 87       	std	Y+13, r19	; 0x0d
     e4a:	2d b7       	in	r18, 0x3d	; 61
     e4c:	3e b7       	in	r19, 0x3e	; 62
     e4e:	28 1b       	sub	r18, r24
     e50:	39 0b       	sbc	r19, r25
     e52:	2d bf       	out	0x3d, r18	; 61
     e54:	3e bf       	out	0x3e, r19	; 62
     e56:	8d b7       	in	r24, 0x3d	; 61
     e58:	9e b7       	in	r25, 0x3e	; 62
     e5a:	01 96       	adiw	r24, 0x01	; 1
     e5c:	8e 87       	std	Y+14, r24	; 0x0e
     e5e:	9f 87       	std	Y+15, r25	; 0x0f
     e60:	ce 01       	movw	r24, r28
     e62:	86 5b       	subi	r24, 0xB6	; 182
     e64:	9f 4f       	sbci	r25, 0xFF	; 255
     e66:	dc 01       	movw	r26, r24
     e68:	9c 91       	ld	r25, X
     e6a:	88 e0       	ldi	r24, 0x08	; 8
     e6c:	29 2f       	mov	r18, r25
     e6e:	28 27       	eor	r18, r24
     e70:	ce 01       	movw	r24, r28
     e72:	86 5b       	subi	r24, 0xB6	; 182
     e74:	9f 4f       	sbci	r25, 0xFF	; 255
     e76:	fc 01       	movw	r30, r24
     e78:	20 83       	st	Z, r18
     e7a:	2c 81       	ldd	r18, Y+4	; 0x04
     e7c:	3d 81       	ldd	r19, Y+5	; 0x05
     e7e:	8a 81       	ldd	r24, Y+2	; 0x02
     e80:	9b 81       	ldd	r25, Y+3	; 0x03
     e82:	a9 01       	movw	r20, r18
     e84:	48 1b       	sub	r20, r24
     e86:	59 0b       	sbc	r21, r25
     e88:	ca 01       	movw	r24, r20
     e8a:	01 97       	sbiw	r24, 0x01	; 1
     e8c:	09 2e       	mov	r0, r25
     e8e:	00 0c       	add	r0, r0
     e90:	aa 0b       	sbc	r26, r26
     e92:	bb 0b       	sbc	r27, r27
     e94:	88 8b       	std	Y+16, r24	; 0x10
     e96:	99 8b       	std	Y+17, r25	; 0x11
     e98:	aa 8b       	std	Y+18, r26	; 0x12
     e9a:	bb 8b       	std	Y+19, r27	; 0x13
     e9c:	88 89       	ldd	r24, Y+16	; 0x10
     e9e:	99 89       	ldd	r25, Y+17	; 0x11
     ea0:	aa 89       	ldd	r26, Y+18	; 0x12
     ea2:	bb 89       	ldd	r27, Y+19	; 0x13
     ea4:	01 96       	adiw	r24, 0x01	; 1
     ea6:	a1 1d       	adc	r26, r1
     ea8:	b1 1d       	adc	r27, r1
     eaa:	9c 01       	movw	r18, r24
     eac:	21 50       	subi	r18, 0x01	; 1
     eae:	31 09       	sbc	r19, r1
     eb0:	2c 8b       	std	Y+20, r18	; 0x14
     eb2:	3d 8b       	std	Y+21, r19	; 0x15
     eb4:	ad b7       	in	r26, 0x3d	; 61
     eb6:	be b7       	in	r27, 0x3e	; 62
     eb8:	a8 1b       	sub	r26, r24
     eba:	b9 0b       	sbc	r27, r25
     ebc:	ad bf       	out	0x3d, r26	; 61
     ebe:	be bf       	out	0x3e, r27	; 62
     ec0:	8d b7       	in	r24, 0x3d	; 61
     ec2:	9e b7       	in	r25, 0x3e	; 62
     ec4:	01 96       	adiw	r24, 0x01	; 1
     ec6:	8e 8b       	std	Y+22, r24	; 0x16
     ec8:	9f 8b       	std	Y+23, r25	; 0x17
     eca:	48 85       	ldd	r20, Y+8	; 0x08
     ecc:	59 85       	ldd	r21, Y+9	; 0x09
     ece:	2e 85       	ldd	r18, Y+14	; 0x0e
     ed0:	3f 85       	ldd	r19, Y+15	; 0x0f
     ed2:	ce 01       	movw	r24, r28
     ed4:	85 5b       	subi	r24, 0xB5	; 181
     ed6:	9f 4f       	sbci	r25, 0xFF	; 255
     ed8:	fc 01       	movw	r30, r24
     eda:	80 81       	ld	r24, Z
     edc:	91 81       	ldd	r25, Z+1	; 0x01
     ede:	bc 01       	movw	r22, r24
     ee0:	c9 01       	movw	r24, r18
     ee2:	0e 94 ec 27 	call	0x4fd8	;  0x4fd8
     ee6:	2e 85       	ldd	r18, Y+14	; 0x0e
     ee8:	3f 85       	ldd	r19, Y+15	; 0x0f
     eea:	88 85       	ldd	r24, Y+8	; 0x08
     eec:	99 85       	ldd	r25, Y+9	; 0x09
     eee:	82 0f       	add	r24, r18
     ef0:	93 1f       	adc	r25, r19
     ef2:	dc 01       	movw	r26, r24
     ef4:	1c 92       	st	X, r1
     ef6:	8e 85       	ldd	r24, Y+14	; 0x0e
     ef8:	9f 85       	ldd	r25, Y+15	; 0x0f
     efa:	9e 01       	movw	r18, r28
     efc:	28 5d       	subi	r18, 0xD8	; 216
     efe:	3f 4f       	sbci	r19, 0xFF	; 255
     f00:	4a e0       	ldi	r20, 0x0A	; 10
     f02:	50 e0       	ldi	r21, 0x00	; 0
     f04:	b9 01       	movw	r22, r18
     f06:	0e 94 9d 26 	call	0x4d3a	;  0x4d3a
     f0a:	dc 01       	movw	r26, r24
     f0c:	cb 01       	movw	r24, r22
     f0e:	88 8f       	std	Y+24, r24	; 0x18
     f10:	99 8f       	std	Y+25, r25	; 0x19
     f12:	aa 8f       	std	Y+26, r26	; 0x1a
     f14:	bb 8f       	std	Y+27, r27	; 0x1b
     f16:	ce 01       	movw	r24, r28
     f18:	86 5b       	subi	r24, 0xB6	; 182
     f1a:	9f 4f       	sbci	r25, 0xFF	; 255
     f1c:	fc 01       	movw	r30, r24
     f1e:	90 81       	ld	r25, Z
     f20:	80 e1       	ldi	r24, 0x10	; 16
     f22:	29 2f       	mov	r18, r25
     f24:	28 27       	eor	r18, r24
     f26:	ce 01       	movw	r24, r28
     f28:	86 5b       	subi	r24, 0xB6	; 182
     f2a:	9f 4f       	sbci	r25, 0xFF	; 255
     f2c:	dc 01       	movw	r26, r24
     f2e:	2c 93       	st	X, r18
     f30:	48 89       	ldd	r20, Y+16	; 0x10
     f32:	59 89       	ldd	r21, Y+17	; 0x11
     f34:	8a 81       	ldd	r24, Y+2	; 0x02
     f36:	9b 81       	ldd	r25, Y+3	; 0x03
     f38:	9c 01       	movw	r18, r24
     f3a:	2f 5f       	subi	r18, 0xFF	; 255
     f3c:	3f 4f       	sbci	r19, 0xFF	; 255
     f3e:	8e 89       	ldd	r24, Y+22	; 0x16
     f40:	9f 89       	ldd	r25, Y+23	; 0x17
     f42:	b9 01       	movw	r22, r18
     f44:	0e 94 ec 27 	call	0x4fd8	;  0x4fd8
     f48:	2e 89       	ldd	r18, Y+22	; 0x16
     f4a:	3f 89       	ldd	r19, Y+23	; 0x17
     f4c:	88 89       	ldd	r24, Y+16	; 0x10
     f4e:	99 89       	ldd	r25, Y+17	; 0x11
     f50:	82 0f       	add	r24, r18
     f52:	93 1f       	adc	r25, r19
     f54:	fc 01       	movw	r30, r24
     f56:	10 82       	st	Z, r1
     f58:	8e 89       	ldd	r24, Y+22	; 0x16
     f5a:	9f 89       	ldd	r25, Y+23	; 0x17
     f5c:	9e 01       	movw	r18, r28
     f5e:	28 5d       	subi	r18, 0xD8	; 216
     f60:	3f 4f       	sbci	r19, 0xFF	; 255
     f62:	4a e0       	ldi	r20, 0x0A	; 10
     f64:	50 e0       	ldi	r21, 0x00	; 0
     f66:	b9 01       	movw	r22, r18
     f68:	0e 94 9d 26 	call	0x4d3a	;  0x4d3a
     f6c:	dc 01       	movw	r26, r24
     f6e:	cb 01       	movw	r24, r22
     f70:	8c 8f       	std	Y+28, r24	; 0x1c
     f72:	9d 8f       	std	Y+29, r25	; 0x1d
     f74:	ae 8f       	std	Y+30, r26	; 0x1e
     f76:	bf 8f       	std	Y+31, r27	; 0x1f
     f78:	ce 01       	movw	r24, r28
     f7a:	86 5b       	subi	r24, 0xB6	; 182
     f7c:	9f 4f       	sbci	r25, 0xFF	; 255
     f7e:	dc 01       	movw	r26, r24
     f80:	8c 91       	ld	r24, X
     f82:	8f 31       	cpi	r24, 0x1F	; 31
     f84:	11 f0       	breq	.+4      	;  0xf8a
     f86:	0e 94 b6 03 	call	0x76c	;  0x76c
     f8a:	0e 94 6d 04 	call	0x8da	;  0x8da
     f8e:	ce 01       	movw	r24, r28
     f90:	86 5b       	subi	r24, 0xB6	; 182
     f92:	9f 4f       	sbci	r25, 0xFF	; 255
     f94:	fc 01       	movw	r30, r24
     f96:	90 81       	ld	r25, Z
     f98:	80 e2       	ldi	r24, 0x20	; 32
     f9a:	29 2f       	mov	r18, r25
     f9c:	28 27       	eor	r18, r24
     f9e:	ce 01       	movw	r24, r28
     fa0:	86 5b       	subi	r24, 0xB6	; 182
     fa2:	9f 4f       	sbci	r25, 0xFF	; 255
     fa4:	dc 01       	movw	r26, r24
     fa6:	2c 93       	st	X, r18
     fa8:	8c 8d       	ldd	r24, Y+28	; 0x1c
     faa:	9d 8d       	ldd	r25, Y+29	; 0x1d
     fac:	ae 8d       	ldd	r26, Y+30	; 0x1e
     fae:	bf 8d       	ldd	r27, Y+31	; 0x1f
     fb0:	9c 01       	movw	r18, r24
     fb2:	21 50       	subi	r18, 0x01	; 1
     fb4:	31 09       	sbc	r19, r1
     fb6:	28 a3       	std	Y+32, r18	; 0x20
     fb8:	39 a3       	std	Y+33, r19	; 0x21
     fba:	ed b7       	in	r30, 0x3d	; 61
     fbc:	fe b7       	in	r31, 0x3e	; 62
     fbe:	e8 1b       	sub	r30, r24
     fc0:	f9 0b       	sbc	r31, r25
     fc2:	ed bf       	out	0x3d, r30	; 61
     fc4:	fe bf       	out	0x3e, r31	; 62
     fc6:	8d b7       	in	r24, 0x3d	; 61
     fc8:	9e b7       	in	r25, 0x3e	; 62
     fca:	01 96       	adiw	r24, 0x01	; 1
     fcc:	8a a3       	std	Y+34, r24	; 0x22
     fce:	9b a3       	std	Y+35, r25	; 0x23
     fd0:	88 8d       	ldd	r24, Y+24	; 0x18
     fd2:	99 8d       	ldd	r25, Y+25	; 0x19
     fd4:	aa 8d       	ldd	r26, Y+26	; 0x1a
     fd6:	bb 8d       	ldd	r27, Y+27	; 0x1b
     fd8:	9c 01       	movw	r18, r24
     fda:	21 50       	subi	r18, 0x01	; 1
     fdc:	31 09       	sbc	r19, r1
     fde:	2c a3       	std	Y+36, r18	; 0x24
     fe0:	3d a3       	std	Y+37, r19	; 0x25
     fe2:	2d b7       	in	r18, 0x3d	; 61
     fe4:	3e b7       	in	r19, 0x3e	; 62
     fe6:	28 1b       	sub	r18, r24
     fe8:	39 0b       	sbc	r19, r25
     fea:	2d bf       	out	0x3d, r18	; 61
     fec:	3e bf       	out	0x3e, r19	; 62
     fee:	8d b7       	in	r24, 0x3d	; 61
     ff0:	9e b7       	in	r25, 0x3e	; 62
     ff2:	01 96       	adiw	r24, 0x01	; 1
     ff4:	8e a3       	std	Y+38, r24	; 0x26
     ff6:	9f a3       	std	Y+39, r25	; 0x27
     ff8:	48 8d       	ldd	r20, Y+24	; 0x18
     ffa:	59 8d       	ldd	r21, Y+25	; 0x19
     ffc:	28 85       	ldd	r18, Y+8	; 0x08
     ffe:	39 85       	ldd	r19, Y+9	; 0x09
    1000:	88 89       	ldd	r24, Y+16	; 0x10
    1002:	99 89       	ldd	r25, Y+17	; 0x11
    1004:	82 0f       	add	r24, r18
    1006:	93 1f       	adc	r25, r19
    1008:	02 96       	adiw	r24, 0x02	; 2
    100a:	9e 01       	movw	r18, r28
    100c:	25 5b       	subi	r18, 0xB5	; 181
    100e:	3f 4f       	sbci	r19, 0xFF	; 255
    1010:	d9 01       	movw	r26, r18
    1012:	2d 91       	ld	r18, X+
    1014:	3c 91       	ld	r19, X
    1016:	28 0f       	add	r18, r24
    1018:	39 1f       	adc	r19, r25
    101a:	8e a1       	ldd	r24, Y+38	; 0x26
    101c:	9f a1       	ldd	r25, Y+39	; 0x27
    101e:	b9 01       	movw	r22, r18
    1020:	0e 94 ec 27 	call	0x4fd8	;  0x4fd8
    1024:	ce 01       	movw	r24, r28
    1026:	86 5b       	subi	r24, 0xB6	; 182
    1028:	9f 4f       	sbci	r25, 0xFF	; 255
    102a:	fc 01       	movw	r30, r24
    102c:	80 81       	ld	r24, Z
    102e:	8f 33       	cpi	r24, 0x3F	; 63
    1030:	11 f0       	breq	.+4      	;  0x1036
    1032:	0e 94 b6 03 	call	0x76c	;  0x76c
    1036:	0e 94 6d 04 	call	0x8da	;  0x8da
    103a:	80 91 8f 22 	lds	r24, 0x228F
    103e:	90 91 90 22 	lds	r25, 0x2290
    1042:	89 83       	std	Y+1, r24	; 0x01
    1044:	4b c1       	rjmp	.+662    	;  0x12dc
    1046:	ce 01       	movw	r24, r28
    1048:	86 5b       	subi	r24, 0xB6	; 182
    104a:	9f 4f       	sbci	r25, 0xFF	; 255
    104c:	dc 01       	movw	r26, r24
    104e:	1c 92       	st	X, r1
    1050:	0e 94 6d 04 	call	0x8da	;  0x8da
    1054:	20 91 93 22 	lds	r18, 0x2293
    1058:	30 91 94 22 	lds	r19, 0x2294
    105c:	89 81       	ldd	r24, Y+1	; 0x01
    105e:	48 2f       	mov	r20, r24
    1060:	88 0f       	add	r24, r24
    1062:	55 0b       	sbc	r21, r21
    1064:	62 e2       	ldi	r22, 0x22	; 34
    1066:	64 9f       	mul	r22, r20
    1068:	c0 01       	movw	r24, r0
    106a:	65 9f       	mul	r22, r21
    106c:	90 0d       	add	r25, r0
    106e:	11 24       	eor	r1, r1
    1070:	82 0f       	add	r24, r18
    1072:	93 1f       	adc	r25, r19
    1074:	fc 01       	movw	r30, r24
    1076:	80 a1       	ldd	r24, Z+32	; 0x20
    1078:	91 a1       	ldd	r25, Z+33	; 0x21
    107a:	89 2b       	or	r24, r25
    107c:	09 f4       	brne	.+2      	;  0x1080
    107e:	2b c1       	rjmp	.+598    	;  0x12d6
    1080:	20 91 93 22 	lds	r18, 0x2293
    1084:	30 91 94 22 	lds	r19, 0x2294
    1088:	89 81       	ldd	r24, Y+1	; 0x01
    108a:	48 2f       	mov	r20, r24
    108c:	88 0f       	add	r24, r24
    108e:	55 0b       	sbc	r21, r21
    1090:	62 e2       	ldi	r22, 0x22	; 34
    1092:	64 9f       	mul	r22, r20
    1094:	c0 01       	movw	r24, r0
    1096:	65 9f       	mul	r22, r21
    1098:	90 0d       	add	r25, r0
    109a:	11 24       	eor	r1, r1
    109c:	82 0f       	add	r24, r18
    109e:	93 1f       	adc	r25, r19
    10a0:	dc 01       	movw	r26, r24
    10a2:	90 96       	adiw	r26, 0x20	; 32
    10a4:	8d 91       	ld	r24, X+
    10a6:	9c 91       	ld	r25, X
    10a8:	91 97       	sbiw	r26, 0x21	; 33
    10aa:	0e 94 19 28 	call	0x5032	;  0x5032
    10ae:	9c 01       	movw	r18, r24
    10b0:	40 e0       	ldi	r20, 0x00	; 0
    10b2:	50 e0       	ldi	r21, 0x00	; 0
    10b4:	88 8d       	ldd	r24, Y+24	; 0x18
    10b6:	99 8d       	ldd	r25, Y+25	; 0x19
    10b8:	aa 8d       	ldd	r26, Y+26	; 0x1a
    10ba:	bb 8d       	ldd	r27, Y+27	; 0x1b
    10bc:	28 17       	cp	r18, r24
    10be:	39 07       	cpc	r19, r25
    10c0:	4a 07       	cpc	r20, r26
    10c2:	5b 07       	cpc	r21, r27
    10c4:	09 f0       	breq	.+2      	;  0x10c8
    10c6:	07 c1       	rjmp	.+526    	;  0x12d6
    10c8:	e8 8d       	ldd	r30, Y+24	; 0x18
    10ca:	f9 8d       	ldd	r31, Y+25	; 0x19
    10cc:	6e a1       	ldd	r22, Y+38	; 0x26
    10ce:	7f a1       	ldd	r23, Y+39	; 0x27
    10d0:	20 91 93 22 	lds	r18, 0x2293
    10d4:	30 91 94 22 	lds	r19, 0x2294
    10d8:	89 81       	ldd	r24, Y+1	; 0x01
    10da:	48 2f       	mov	r20, r24
    10dc:	88 0f       	add	r24, r24
    10de:	55 0b       	sbc	r21, r21
    10e0:	a2 e2       	ldi	r26, 0x22	; 34
    10e2:	a4 9f       	mul	r26, r20
    10e4:	c0 01       	movw	r24, r0
    10e6:	a5 9f       	mul	r26, r21
    10e8:	90 0d       	add	r25, r0
    10ea:	11 24       	eor	r1, r1
    10ec:	82 0f       	add	r24, r18
    10ee:	93 1f       	adc	r25, r19
    10f0:	dc 01       	movw	r26, r24
    10f2:	90 96       	adiw	r26, 0x20	; 32
    10f4:	8d 91       	ld	r24, X+
    10f6:	9c 91       	ld	r25, X
    10f8:	91 97       	sbiw	r26, 0x21	; 33
    10fa:	af 01       	movw	r20, r30
    10fc:	0e 94 df 27 	call	0x4fbe	;  0x4fbe
    1100:	89 2b       	or	r24, r25
    1102:	09 f0       	breq	.+2      	;  0x1106
    1104:	e8 c0       	rjmp	.+464    	;  0x12d6
    1106:	0e 94 6d 04 	call	0x8da	;  0x8da
    110a:	ce 01       	movw	r24, r28
    110c:	86 5b       	subi	r24, 0xB6	; 182
    110e:	9f 4f       	sbci	r25, 0xFF	; 255
    1110:	fc 01       	movw	r30, r24
    1112:	80 81       	ld	r24, Z
    1114:	88 23       	and	r24, r24
    1116:	11 f0       	breq	.+4      	;  0x111c
    1118:	0e 94 b6 03 	call	0x76c	;  0x76c
    111c:	0e 94 6d 04 	call	0x8da	;  0x8da
    1120:	ce 01       	movw	r24, r28
    1122:	86 5b       	subi	r24, 0xB6	; 182
    1124:	9f 4f       	sbci	r25, 0xFF	; 255
    1126:	dc 01       	movw	r26, r24
    1128:	8c 91       	ld	r24, X
    112a:	21 e0       	ldi	r18, 0x01	; 1
    112c:	28 0f       	add	r18, r24
    112e:	ce 01       	movw	r24, r28
    1130:	86 5b       	subi	r24, 0xB6	; 182
    1132:	9f 4f       	sbci	r25, 0xFF	; 255
    1134:	fc 01       	movw	r30, r24
    1136:	20 83       	st	Z, r18
    1138:	4c 8d       	ldd	r20, Y+28	; 0x1c
    113a:	5d 8d       	ldd	r21, Y+29	; 0x1d
    113c:	28 85       	ldd	r18, Y+8	; 0x08
    113e:	39 85       	ldd	r19, Y+9	; 0x09
    1140:	88 89       	ldd	r24, Y+16	; 0x10
    1142:	99 89       	ldd	r25, Y+17	; 0x11
    1144:	28 0f       	add	r18, r24
    1146:	39 1f       	adc	r19, r25
    1148:	88 8d       	ldd	r24, Y+24	; 0x18
    114a:	99 8d       	ldd	r25, Y+25	; 0x19
    114c:	82 0f       	add	r24, r18
    114e:	93 1f       	adc	r25, r19
    1150:	02 96       	adiw	r24, 0x02	; 2
    1152:	9e 01       	movw	r18, r28
    1154:	25 5b       	subi	r18, 0xB5	; 181
    1156:	3f 4f       	sbci	r19, 0xFF	; 255
    1158:	d9 01       	movw	r26, r18
    115a:	2d 91       	ld	r18, X+
    115c:	3c 91       	ld	r19, X
    115e:	28 0f       	add	r18, r24
    1160:	39 1f       	adc	r19, r25
    1162:	8a a1       	ldd	r24, Y+34	; 0x22
    1164:	9b a1       	ldd	r25, Y+35	; 0x23
    1166:	b9 01       	movw	r22, r18
    1168:	0e 94 ec 27 	call	0x4fd8	;  0x4fd8
    116c:	ce 01       	movw	r24, r28
    116e:	86 5b       	subi	r24, 0xB6	; 182
    1170:	9f 4f       	sbci	r25, 0xFF	; 255
    1172:	fc 01       	movw	r30, r24
    1174:	80 81       	ld	r24, Z
    1176:	21 e0       	ldi	r18, 0x01	; 1
    1178:	28 0f       	add	r18, r24
    117a:	ce 01       	movw	r24, r28
    117c:	86 5b       	subi	r24, 0xB6	; 182
    117e:	9f 4f       	sbci	r25, 0xFF	; 255
    1180:	dc 01       	movw	r26, r24
    1182:	2c 93       	st	X, r18
    1184:	8c 8d       	ldd	r24, Y+28	; 0x1c
    1186:	9d 8d       	ldd	r25, Y+29	; 0x1d
    1188:	ae 8d       	ldd	r26, Y+30	; 0x1e
    118a:	bf 8d       	ldd	r27, Y+31	; 0x1f
    118c:	88 0f       	add	r24, r24
    118e:	99 1f       	adc	r25, r25
    1190:	aa 1f       	adc	r26, r26
    1192:	bb 1f       	adc	r27, r27
    1194:	88 0f       	add	r24, r24
    1196:	99 1f       	adc	r25, r25
    1198:	aa 1f       	adc	r26, r26
    119a:	bb 1f       	adc	r27, r27
    119c:	88 0f       	add	r24, r24
    119e:	99 1f       	adc	r25, r25
    11a0:	aa 1f       	adc	r26, r26
    11a2:	bb 1f       	adc	r27, r27
    11a4:	9c 01       	movw	r18, r24
    11a6:	ad 01       	movw	r20, r26
    11a8:	6a a1       	ldd	r22, Y+34	; 0x22
    11aa:	7b a1       	ldd	r23, Y+35	; 0x23
    11ac:	ce 01       	movw	r24, r28
    11ae:	8a 96       	adiw	r24, 0x2a	; 42
    11b0:	0e 94 c3 10 	call	0x2186	;  0x2186
    11b4:	ce 01       	movw	r24, r28
    11b6:	86 5b       	subi	r24, 0xB6	; 182
    11b8:	9f 4f       	sbci	r25, 0xFF	; 255
    11ba:	fc 01       	movw	r30, r24
    11bc:	80 81       	ld	r24, Z
    11be:	21 e0       	ldi	r18, 0x01	; 1
    11c0:	28 0f       	add	r18, r24
    11c2:	ce 01       	movw	r24, r28
    11c4:	86 5b       	subi	r24, 0xB6	; 182
    11c6:	9f 4f       	sbci	r25, 0xFF	; 255
    11c8:	dc 01       	movw	r26, r24
    11ca:	2c 93       	st	X, r18
    11cc:	0e 94 6d 04 	call	0x8da	;  0x8da
    11d0:	ce 01       	movw	r24, r28
    11d2:	86 5b       	subi	r24, 0xB6	; 182
    11d4:	9f 4f       	sbci	r25, 0xFF	; 255
    11d6:	fc 01       	movw	r30, r24
    11d8:	80 81       	ld	r24, Z
    11da:	83 30       	cpi	r24, 0x03	; 3
    11dc:	19 f5       	brne	.+70     	;  0x1224
    11de:	20 91 93 22 	lds	r18, 0x2293
    11e2:	30 91 94 22 	lds	r19, 0x2294
    11e6:	89 81       	ldd	r24, Y+1	; 0x01
    11e8:	48 2f       	mov	r20, r24
    11ea:	88 0f       	add	r24, r24
    11ec:	55 0b       	sbc	r21, r21
    11ee:	62 e2       	ldi	r22, 0x22	; 34
    11f0:	64 9f       	mul	r22, r20
    11f2:	c0 01       	movw	r24, r0
    11f4:	65 9f       	mul	r22, r21
    11f6:	90 0d       	add	r25, r0
    11f8:	11 24       	eor	r1, r1
    11fa:	82 0f       	add	r24, r18
    11fc:	93 1f       	adc	r25, r19
    11fe:	9c 01       	movw	r18, r24
    1200:	ce 01       	movw	r24, r28
    1202:	8a 96       	adiw	r24, 0x2a	; 42
    1204:	40 e2       	ldi	r20, 0x20	; 32
    1206:	50 e0       	ldi	r21, 0x00	; 0
    1208:	bc 01       	movw	r22, r24
    120a:	c9 01       	movw	r24, r18
    120c:	0e 94 df 27 	call	0x4fbe	;  0x4fbe
    1210:	89 2b       	or	r24, r25
    1212:	41 f4       	brne	.+16     	;  0x1224
    1214:	82 e1       	ldi	r24, 0x12	; 18
    1216:	80 93 05 20 	sts	0x2005, r24
    121a:	80 91 05 20 	lds	r24, 0x2005
    121e:	8a 56       	subi	r24, 0x6A	; 106
    1220:	80 93 05 20 	sts	0x2005, r24
    1224:	0e 94 6d 04 	call	0x8da	;  0x8da
    1228:	ce 01       	movw	r24, r28
    122a:	86 5b       	subi	r24, 0xB6	; 182
    122c:	9f 4f       	sbci	r25, 0xFF	; 255
    122e:	dc 01       	movw	r26, r24
    1230:	8c 91       	ld	r24, X
    1232:	21 e0       	ldi	r18, 0x01	; 1
    1234:	28 0f       	add	r18, r24
    1236:	ce 01       	movw	r24, r28
    1238:	86 5b       	subi	r24, 0xB6	; 182
    123a:	9f 4f       	sbci	r25, 0xFF	; 255
    123c:	fc 01       	movw	r30, r24
    123e:	20 83       	st	Z, r18
    1240:	0e 94 6d 04 	call	0x8da	;  0x8da
    1244:	ce 01       	movw	r24, r28
    1246:	86 5b       	subi	r24, 0xB6	; 182
    1248:	9f 4f       	sbci	r25, 0xFF	; 255
    124a:	dc 01       	movw	r26, r24
    124c:	8c 91       	ld	r24, X
    124e:	84 30       	cpi	r24, 0x04	; 4
    1250:	d9 f4       	brne	.+54     	;  0x1288
    1252:	20 91 93 22 	lds	r18, 0x2293
    1256:	30 91 94 22 	lds	r19, 0x2294
    125a:	89 81       	ldd	r24, Y+1	; 0x01
    125c:	48 2f       	mov	r20, r24
    125e:	88 0f       	add	r24, r24
    1260:	55 0b       	sbc	r21, r21
    1262:	62 e2       	ldi	r22, 0x22	; 34
    1264:	64 9f       	mul	r22, r20
    1266:	c0 01       	movw	r24, r0
    1268:	65 9f       	mul	r22, r21
    126a:	90 0d       	add	r25, r0
    126c:	11 24       	eor	r1, r1
    126e:	82 0f       	add	r24, r18
    1270:	93 1f       	adc	r25, r19
    1272:	9c 01       	movw	r18, r24
    1274:	ce 01       	movw	r24, r28
    1276:	8a 96       	adiw	r24, 0x2a	; 42
    1278:	40 e2       	ldi	r20, 0x20	; 32
    127a:	50 e0       	ldi	r21, 0x00	; 0
    127c:	bc 01       	movw	r22, r24
    127e:	c9 01       	movw	r24, r18
    1280:	0e 94 df 27 	call	0x4fbe	;  0x4fbe
    1284:	89 2b       	or	r24, r25
    1286:	11 f0       	breq	.+4      	;  0x128c
    1288:	82 e0       	ldi	r24, 0x02	; 2
    128a:	2d c0       	rjmp	.+90     	;  0x12e6
    128c:	ce 01       	movw	r24, r28
    128e:	86 5b       	subi	r24, 0xB6	; 182
    1290:	9f 4f       	sbci	r25, 0xFF	; 255
    1292:	fc 01       	movw	r30, r24
    1294:	80 81       	ld	r24, Z
    1296:	21 e0       	ldi	r18, 0x01	; 1
    1298:	28 0f       	add	r18, r24
    129a:	ce 01       	movw	r24, r28
    129c:	86 5b       	subi	r24, 0xB6	; 182
    129e:	9f 4f       	sbci	r25, 0xFF	; 255
    12a0:	dc 01       	movw	r26, r24
    12a2:	2c 93       	st	X, r18
    12a4:	0e 94 6d 04 	call	0x8da	;  0x8da
    12a8:	ce 01       	movw	r24, r28
    12aa:	86 5b       	subi	r24, 0xB6	; 182
    12ac:	9f 4f       	sbci	r25, 0xFF	; 255
    12ae:	fc 01       	movw	r30, r24
    12b0:	80 81       	ld	r24, Z
    12b2:	85 30       	cpi	r24, 0x05	; 5
    12b4:	19 f0       	breq	.+6      	;  0x12bc
    12b6:	0e 94 b6 03 	call	0x76c	;  0x76c
    12ba:	0d c0       	rjmp	.+26     	;  0x12d6
    12bc:	80 91 05 20 	lds	r24, 0x2005
    12c0:	82 51       	subi	r24, 0x12	; 18
    12c2:	80 93 05 20 	sts	0x2005, r24
    12c6:	8a e3       	ldi	r24, 0x3A	; 58
    12c8:	98 e1       	ldi	r25, 0x18	; 24
    12ca:	80 93 d7 21 	sts	0x21D7, r24
    12ce:	90 93 d8 21 	sts	0x21D8, r25
    12d2:	81 e0       	ldi	r24, 0x01	; 1
    12d4:	08 c0       	rjmp	.+16     	;  0x12e6
    12d6:	89 81       	ldd	r24, Y+1	; 0x01
    12d8:	81 50       	subi	r24, 0x01	; 1
    12da:	89 83       	std	Y+1, r24	; 0x01
    12dc:	89 81       	ldd	r24, Y+1	; 0x01
    12de:	88 23       	and	r24, r24
    12e0:	0c f0       	brlt	.+2      	;  0x12e4
    12e2:	b1 ce       	rjmp	.-670    	;  0x1046
    12e4:	80 e0       	ldi	r24, 0x00	; 0
    12e6:	ed be       	out	0x3d, r14	; 61
    12e8:	fe be       	out	0x3e, r15	; 62
    12ea:	01 c0       	rjmp	.+2      	;  0x12ee
    12ec:	8f ef       	ldi	r24, 0xFF	; 255
    12ee:	0d bf       	out	0x3d, r16	; 61
    12f0:	1e bf       	out	0x3e, r17	; 62
    12f2:	c4 5b       	subi	r28, 0xB4	; 180
    12f4:	df 4f       	sbci	r29, 0xFF	; 255
    12f6:	cd bf       	out	0x3d, r28	; 61
    12f8:	de bf       	out	0x3e, r29	; 62
    12fa:	df 91       	pop	r29
    12fc:	cf 91       	pop	r28
    12fe:	1f 91       	pop	r17
    1300:	0f 91       	pop	r16
    1302:	ff 90       	pop	r15
    1304:	ef 90       	pop	r14
    1306:	08 95       	ret
    1308:	cf 93       	push	r28
    130a:	df 93       	push	r29
    130c:	cd b7       	in	r28, 0x3d	; 61
    130e:	de b7       	in	r29, 0x3e	; 62
    1310:	c7 5e       	subi	r28, 0xE7	; 231
    1312:	d1 09       	sbc	r29, r1
    1314:	cd bf       	out	0x3d, r28	; 61
    1316:	de bf       	out	0x3e, r29	; 62
    1318:	0e 94 b4 05 	call	0xb68	;  0xb68
    131c:	80 91 0f 20 	lds	r24, 0x200F
    1320:	90 91 10 20 	lds	r25, 0x2010
    1324:	0e 94 7d 17 	call	0x2efa	;  0x2efa
    1328:	0e 94 03 19 	call	0x3206	;  0x3206
    132c:	0e 94 7d 22 	call	0x44fa	;  0x44fa
    1330:	80 e0       	ldi	r24, 0x00	; 0
    1332:	96 e0       	ldi	r25, 0x06	; 6
    1334:	23 e0       	ldi	r18, 0x03	; 3
    1336:	fc 01       	movw	r30, r24
    1338:	20 83       	st	Z, r18
    133a:	2e e0       	ldi	r18, 0x0E	; 14
    133c:	ce 01       	movw	r24, r28
    133e:	01 96       	adiw	r24, 0x01	; 1
    1340:	fc 01       	movw	r30, r24
    1342:	32 2f       	mov	r19, r18
    1344:	11 92       	st	Z+, r1
    1346:	3a 95       	dec	r19
    1348:	e9 f7       	brne	.-6      	;  0x1344
    134a:	82 e0       	ldi	r24, 0x02	; 2
    134c:	8c 83       	std	Y+4, r24	; 0x04
    134e:	8e e0       	ldi	r24, 0x0E	; 14
    1350:	98 e1       	ldi	r25, 0x18	; 24
    1352:	89 87       	std	Y+9, r24	; 0x09
    1354:	9a 87       	std	Y+10, r25	; 0x0a
    1356:	2e e0       	ldi	r18, 0x0E	; 14
    1358:	ce 01       	movw	r24, r28
    135a:	0f 96       	adiw	r24, 0x0f	; 15
    135c:	fc 01       	movw	r30, r24
    135e:	32 2f       	mov	r19, r18
    1360:	11 92       	st	Z+, r1
    1362:	3a 95       	dec	r19
    1364:	e9 f7       	brne	.-6      	;  0x1360
    1366:	81 e0       	ldi	r24, 0x01	; 1
    1368:	8a 8b       	std	Y+18, r24	; 0x12
    136a:	80 e9       	ldi	r24, 0x90	; 144
    136c:	98 e1       	ldi	r25, 0x18	; 24
    136e:	89 8f       	std	Y+25, r24	; 0x19
    1370:	9a 8f       	std	Y+26, r25	; 0x1a
    1372:	80 e8       	ldi	r24, 0x80	; 128
    1374:	96 e0       	ldi	r25, 0x06	; 6
    1376:	21 e0       	ldi	r18, 0x01	; 1
    1378:	fc 01       	movw	r30, r24
    137a:	20 83       	st	Z, r18
    137c:	80 e0       	ldi	r24, 0x00	; 0
    137e:	9a e0       	ldi	r25, 0x0A	; 10
    1380:	21 e0       	ldi	r18, 0x01	; 1
    1382:	fc 01       	movw	r30, r24
    1384:	20 83       	st	Z, r18
    1386:	80 e0       	ldi	r24, 0x00	; 0
    1388:	9a e0       	ldi	r25, 0x0A	; 10
    138a:	21 e1       	ldi	r18, 0x11	; 17
    138c:	fc 01       	movw	r30, r24
    138e:	21 83       	std	Z+1, r18	; 0x01
    1390:	80 e0       	ldi	r24, 0x00	; 0
    1392:	9a e0       	ldi	r25, 0x0A	; 10
    1394:	fc 01       	movw	r30, r24
    1396:	10 a6       	std	Z+40, r1	; 0x28
    1398:	11 a6       	std	Z+41, r1	; 0x29
    139a:	1d 8e       	std	Y+29, r1	; 0x1d
    139c:	80 91 0f 20 	lds	r24, 0x200F
    13a0:	90 91 10 20 	lds	r25, 0x2010
    13a4:	65 eb       	ldi	r22, 0xB5	; 181
    13a6:	70 e2       	ldi	r23, 0x20	; 32
    13a8:	0e 94 4b 18 	call	0x3096	;  0x3096
    13ac:	0e 94 f0 01 	call	0x3e0	;  0x3e0
    13b0:	0e 94 04 05 	call	0xa08	;  0xa08
    13b4:	80 91 0f 20 	lds	r24, 0x200F
    13b8:	90 91 10 20 	lds	r25, 0x2010
    13bc:	67 ec       	ldi	r22, 0xC7	; 199
    13be:	70 e2       	ldi	r23, 0x20	; 32
    13c0:	0e 94 4b 18 	call	0x3096	;  0x3096
    13c4:	0e 94 dd 05 	call	0xbba	;  0xbba
    13c8:	1e 8e       	std	Y+30, r1	; 0x1e
    13ca:	1d 8e       	std	Y+29, r1	; 0x1d
    13cc:	9d 8d       	ldd	r25, Y+29	; 0x1d
    13ce:	81 e0       	ldi	r24, 0x01	; 1
    13d0:	89 27       	eor	r24, r25
    13d2:	8d 8f       	std	Y+29, r24	; 0x1d
    13d4:	80 91 0f 20 	lds	r24, 0x200F
    13d8:	90 91 10 20 	lds	r25, 0x2010
    13dc:	be 01       	movw	r22, r28
    13de:	61 5e       	subi	r22, 0xE1	; 225
    13e0:	7f 4f       	sbci	r23, 0xFF	; 255
    13e2:	2a e0       	ldi	r18, 0x0A	; 10
    13e4:	48 ec       	ldi	r20, 0xC8	; 200
    13e6:	50 e0       	ldi	r21, 0x00	; 0
    13e8:	0e 94 bb 18 	call	0x3176	;  0x3176
    13ec:	0e 94 6d 04 	call	0x8da	;  0x8da
    13f0:	9d 8d       	ldd	r25, Y+29	; 0x1d
    13f2:	82 e0       	ldi	r24, 0x02	; 2
    13f4:	89 27       	eor	r24, r25
    13f6:	8d 8f       	std	Y+29, r24	; 0x1d
    13f8:	ce 01       	movw	r24, r28
    13fa:	4f 96       	adiw	r24, 0x1f	; 31
    13fc:	0e 94 8a 06 	call	0xd14	;  0xd14
    1400:	28 2f       	mov	r18, r24
    1402:	ce 01       	movw	r24, r28
    1404:	89 51       	subi	r24, 0x19	; 25
    1406:	9f 4f       	sbci	r25, 0xFF	; 255
    1408:	fc 01       	movw	r30, r24
    140a:	20 83       	st	Z, r18
    140c:	0e 94 6d 04 	call	0x8da	;  0x8da
    1410:	9d 8d       	ldd	r25, Y+29	; 0x1d
    1412:	84 e0       	ldi	r24, 0x04	; 4
    1414:	89 27       	eor	r24, r25
    1416:	8d 8f       	std	Y+29, r24	; 0x1d
    1418:	ce 01       	movw	r24, r28
    141a:	89 51       	subi	r24, 0x19	; 25
    141c:	9f 4f       	sbci	r25, 0xFF	; 255
    141e:	fc 01       	movw	r30, r24
    1420:	80 81       	ld	r24, Z
    1422:	81 30       	cpi	r24, 0x01	; 1
    1424:	01 f5       	brne	.+64     	;  0x1466
    1426:	0e 94 6d 04 	call	0x8da	;  0x8da
    142a:	80 91 05 20 	lds	r24, 0x2005
    142e:	86 39       	cpi	r24, 0x96	; 150
    1430:	11 f0       	breq	.+4      	;  0x1436
    1432:	0e 94 c8 27 	call	0x4f90	;  0x4f90
    1436:	8f ef       	ldi	r24, 0xFF	; 255
    1438:	8e 8f       	std	Y+30, r24	; 0x1e
    143a:	0e 94 6d 04 	call	0x8da	;  0x8da
    143e:	8d 8d       	ldd	r24, Y+29	; 0x1d
    1440:	87 30       	cpi	r24, 0x07	; 7
    1442:	19 f0       	breq	.+6      	;  0x144a
    1444:	0e 94 b6 03 	call	0x76c	;  0x76c
    1448:	0e c0       	rjmp	.+28     	;  0x1466
    144a:	8e 8d       	ldd	r24, Y+30	; 0x1e
    144c:	0e 94 6d 24 	call	0x48da	;  0x48da
    1450:	9d 8d       	ldd	r25, Y+29	; 0x1d
    1452:	88 e0       	ldi	r24, 0x08	; 8
    1454:	89 27       	eor	r24, r25
    1456:	8d 8f       	std	Y+29, r24	; 0x1d
    1458:	0e 94 6d 04 	call	0x8da	;  0x8da
    145c:	8d 8d       	ldd	r24, Y+29	; 0x1d
    145e:	8f 30       	cpi	r24, 0x0F	; 15
    1460:	11 f0       	breq	.+4      	;  0x1466
    1462:	0e 94 b6 03 	call	0x76c	;  0x76c
    1466:	0e 94 6d 04 	call	0x8da	;  0x8da
    146a:	9d 8d       	ldd	r25, Y+29	; 0x1d
    146c:	80 e1       	ldi	r24, 0x10	; 16
    146e:	89 27       	eor	r24, r25
    1470:	8d 8f       	std	Y+29, r24	; 0x1d
    1472:	ce 01       	movw	r24, r28
    1474:	89 51       	subi	r24, 0x19	; 25
    1476:	9f 4f       	sbci	r25, 0xFF	; 255
    1478:	fc 01       	movw	r30, r24
    147a:	80 81       	ld	r24, Z
    147c:	8f 3f       	cpi	r24, 0xFF	; 255
    147e:	49 f4       	brne	.+18     	;  0x1492
    1480:	80 91 0f 20 	lds	r24, 0x200F
    1484:	90 91 10 20 	lds	r25, 0x2010
    1488:	6c ed       	ldi	r22, 0xDC	; 220
    148a:	70 e2       	ldi	r23, 0x20	; 32
    148c:	0e 94 4b 18 	call	0x3096	;  0x3096
    1490:	60 c0       	rjmp	.+192    	;  0x1552
    1492:	0e 94 6d 04 	call	0x8da	;  0x8da
    1496:	ce 01       	movw	r24, r28
    1498:	89 51       	subi	r24, 0x19	; 25
    149a:	9f 4f       	sbci	r25, 0xFF	; 255
    149c:	fc 01       	movw	r30, r24
    149e:	80 81       	ld	r24, Z
    14a0:	88 23       	and	r24, r24
    14a2:	49 f4       	brne	.+18     	;  0x14b6
    14a4:	80 91 0f 20 	lds	r24, 0x200F
    14a8:	90 91 10 20 	lds	r25, 0x2010
    14ac:	60 e2       	ldi	r22, 0x20	; 32
    14ae:	71 e2       	ldi	r23, 0x21	; 33
    14b0:	0e 94 4b 18 	call	0x3096	;  0x3096
    14b4:	4e c0       	rjmp	.+156    	;  0x1552
    14b6:	ce 01       	movw	r24, r28
    14b8:	89 51       	subi	r24, 0x19	; 25
    14ba:	9f 4f       	sbci	r25, 0xFF	; 255
    14bc:	fc 01       	movw	r30, r24
    14be:	80 81       	ld	r24, Z
    14c0:	82 30       	cpi	r24, 0x02	; 2
    14c2:	49 f4       	brne	.+18     	;  0x14d6
    14c4:	80 91 0f 20 	lds	r24, 0x200F
    14c8:	90 91 10 20 	lds	r25, 0x2010
    14cc:	60 e3       	ldi	r22, 0x30	; 48
    14ce:	71 e2       	ldi	r23, 0x21	; 33
    14d0:	0e 94 4b 18 	call	0x3096	;  0x3096
    14d4:	3e c0       	rjmp	.+124    	;  0x1552
    14d6:	ce 01       	movw	r24, r28
    14d8:	89 51       	subi	r24, 0x19	; 25
    14da:	9f 4f       	sbci	r25, 0xFF	; 255
    14dc:	fc 01       	movw	r30, r24
    14de:	80 81       	ld	r24, Z
    14e0:	81 30       	cpi	r24, 0x01	; 1
    14e2:	b9 f5       	brne	.+110    	;  0x1552
    14e4:	9d 8d       	ldd	r25, Y+29	; 0x1d
    14e6:	80 e2       	ldi	r24, 0x20	; 32
    14e8:	89 27       	eor	r24, r25
    14ea:	8d 8f       	std	Y+29, r24	; 0x1d
    14ec:	80 91 05 20 	lds	r24, 0x2005
    14f0:	86 39       	cpi	r24, 0x96	; 150
    14f2:	69 f5       	brne	.+90     	;  0x154e
    14f4:	80 91 0f 20 	lds	r24, 0x200F
    14f8:	90 91 10 20 	lds	r25, 0x2010
    14fc:	62 e4       	ldi	r22, 0x42	; 66
    14fe:	71 e2       	ldi	r23, 0x21	; 33
    1500:	0e 94 4b 18 	call	0x3096	;  0x3096
    1504:	0e 94 6d 04 	call	0x8da	;  0x8da
    1508:	8d 8d       	ldd	r24, Y+29	; 0x1d
    150a:	8f 33       	cpi	r24, 0x3F	; 63
    150c:	19 f0       	breq	.+6      	;  0x1514
    150e:	0e 94 b6 03 	call	0x76c	;  0x76c
    1512:	1f c0       	rjmp	.+62     	;  0x1552
    1514:	0e 94 6d 04 	call	0x8da	;  0x8da
    1518:	8d 8d       	ldd	r24, Y+29	; 0x1d
    151a:	8f 33       	cpi	r24, 0x3F	; 63
    151c:	19 f0       	breq	.+6      	;  0x1524
    151e:	0e 94 b6 03 	call	0x76c	;  0x76c
    1522:	17 c0       	rjmp	.+46     	;  0x1552
    1524:	0e 94 6d 04 	call	0x8da	;  0x8da
    1528:	ce 01       	movw	r24, r28
    152a:	89 51       	subi	r24, 0x19	; 25
    152c:	9f 4f       	sbci	r25, 0xFF	; 255
    152e:	fc 01       	movw	r30, r24
    1530:	80 81       	ld	r24, Z
    1532:	81 30       	cpi	r24, 0x01	; 1
    1534:	19 f0       	breq	.+6      	;  0x153c
    1536:	0e 94 b6 03 	call	0x76c	;  0x76c
    153a:	0b c0       	rjmp	.+22     	;  0x1552
    153c:	80 91 d7 21 	lds	r24, 0x21D7
    1540:	90 91 d8 21 	lds	r25, 0x21D8
    1544:	0e 94 7a 24 	call	0x48f4	;  0x48f4
    1548:	80 e0       	ldi	r24, 0x00	; 0
    154a:	90 e0       	ldi	r25, 0x00	; 0
    154c:	03 c0       	rjmp	.+6      	;  0x1554
    154e:	0e 94 c8 27 	call	0x4f90	;  0x4f90
    1552:	3b cf       	rjmp	.-394    	;  0x13ca
    1554:	c9 51       	subi	r28, 0x19	; 25
    1556:	df 4f       	sbci	r29, 0xFF	; 255
    1558:	cd bf       	out	0x3d, r28	; 61
    155a:	de bf       	out	0x3e, r29	; 62
    155c:	df 91       	pop	r29
    155e:	cf 91       	pop	r28
    1560:	08 95       	ret
    1562:	cf 93       	push	r28
    1564:	df 93       	push	r29
    1566:	1f 92       	push	r1
    1568:	1f 92       	push	r1
    156a:	cd b7       	in	r28, 0x3d	; 61
    156c:	de b7       	in	r29, 0x3e	; 62
    156e:	89 83       	std	Y+1, r24	; 0x01
    1570:	9a 83       	std	Y+2, r25	; 0x02
    1572:	89 81       	ldd	r24, Y+1	; 0x01
    1574:	9a 81       	ldd	r25, Y+2	; 0x02
    1576:	fc 01       	movw	r30, r24
    1578:	10 a2       	std	Z+32, r1	; 0x20
    157a:	11 a2       	std	Z+33, r1	; 0x21
    157c:	12 a2       	std	Z+34, r1	; 0x22
    157e:	13 a2       	std	Z+35, r1	; 0x23
    1580:	89 81       	ldd	r24, Y+1	; 0x01
    1582:	9a 81       	ldd	r25, Y+2	; 0x02
    1584:	40 e2       	ldi	r20, 0x20	; 32
    1586:	50 e0       	ldi	r21, 0x00	; 0
    1588:	6a e4       	ldi	r22, 0x4A	; 74
    158a:	72 e0       	ldi	r23, 0x02	; 2
    158c:	0e 94 d6 27 	call	0x4fac	;  0x4fac
    1590:	0f 90       	pop	r0
    1592:	0f 90       	pop	r0
    1594:	df 91       	pop	r29
    1596:	cf 91       	pop	r28
    1598:	08 95       	ret
    159a:	cf 93       	push	r28
    159c:	df 93       	push	r29
    159e:	cd b7       	in	r28, 0x3d	; 61
    15a0:	de b7       	in	r29, 0x3e	; 62
    15a2:	25 97       	sbiw	r28, 0x05	; 5
    15a4:	cd bf       	out	0x3d, r28	; 61
    15a6:	de bf       	out	0x3e, r29	; 62
    15a8:	69 83       	std	Y+1, r22	; 0x01
    15aa:	7a 83       	std	Y+2, r23	; 0x02
    15ac:	8b 83       	std	Y+3, r24	; 0x03
    15ae:	9c 83       	std	Y+4, r25	; 0x04
    15b0:	4d 83       	std	Y+5, r20	; 0x05
    15b2:	8d 81       	ldd	r24, Y+5	; 0x05
    15b4:	68 2f       	mov	r22, r24
    15b6:	70 e0       	ldi	r23, 0x00	; 0
    15b8:	89 81       	ldd	r24, Y+1	; 0x01
    15ba:	9a 81       	ldd	r25, Y+2	; 0x02
    15bc:	ab 81       	ldd	r26, Y+3	; 0x03
    15be:	bc 81       	ldd	r27, Y+4	; 0x04
    15c0:	9c 01       	movw	r18, r24
    15c2:	ad 01       	movw	r20, r26
    15c4:	06 2e       	mov	r0, r22
    15c6:	04 c0       	rjmp	.+8      	;  0x15d0
    15c8:	56 95       	lsr	r21
    15ca:	47 95       	ror	r20
    15cc:	37 95       	ror	r19
    15ce:	27 95       	ror	r18
    15d0:	0a 94       	dec	r0
    15d2:	d2 f7       	brpl	.-12     	;  0x15c8
    15d4:	71 95       	neg	r23
    15d6:	61 95       	neg	r22
    15d8:	71 09       	sbc	r23, r1
    15da:	6f 71       	andi	r22, 0x1F	; 31
    15dc:	77 27       	eor	r23, r23
    15de:	04 c0       	rjmp	.+8      	;  0x15e8
    15e0:	88 0f       	add	r24, r24
    15e2:	99 1f       	adc	r25, r25
    15e4:	aa 1f       	adc	r26, r26
    15e6:	bb 1f       	adc	r27, r27
    15e8:	6a 95       	dec	r22
    15ea:	d2 f7       	brpl	.-12     	;  0x15e0
    15ec:	82 2b       	or	r24, r18
    15ee:	93 2b       	or	r25, r19
    15f0:	a4 2b       	or	r26, r20
    15f2:	b5 2b       	or	r27, r21
    15f4:	bc 01       	movw	r22, r24
    15f6:	cd 01       	movw	r24, r26
    15f8:	25 96       	adiw	r28, 0x05	; 5
    15fa:	cd bf       	out	0x3d, r28	; 61
    15fc:	de bf       	out	0x3e, r29	; 62
    15fe:	df 91       	pop	r29
    1600:	cf 91       	pop	r28
    1602:	08 95       	ret
    1604:	cf 93       	push	r28
    1606:	df 93       	push	r29
    1608:	00 d0       	rcall	.+0      	;  0x160a
    160a:	1f 92       	push	r1
    160c:	cd b7       	in	r28, 0x3d	; 61
    160e:	de b7       	in	r29, 0x3e	; 62
    1610:	69 83       	std	Y+1, r22	; 0x01
    1612:	7a 83       	std	Y+2, r23	; 0x02
    1614:	8b 83       	std	Y+3, r24	; 0x03
    1616:	9c 83       	std	Y+4, r25	; 0x04
    1618:	89 81       	ldd	r24, Y+1	; 0x01
    161a:	9a 81       	ldd	r25, Y+2	; 0x02
    161c:	ab 81       	ldd	r26, Y+3	; 0x03
    161e:	bc 81       	ldd	r27, Y+4	; 0x04
    1620:	58 2f       	mov	r21, r24
    1622:	44 27       	eor	r20, r20
    1624:	33 27       	eor	r19, r19
    1626:	22 27       	eor	r18, r18
    1628:	89 81       	ldd	r24, Y+1	; 0x01
    162a:	9a 81       	ldd	r25, Y+2	; 0x02
    162c:	ab 81       	ldd	r26, Y+3	; 0x03
    162e:	bc 81       	ldd	r27, Y+4	; 0x04
    1630:	8b 2f       	mov	r24, r27
    1632:	99 27       	eor	r25, r25
    1634:	aa 27       	eor	r26, r26
    1636:	bb 27       	eor	r27, r27
    1638:	28 2b       	or	r18, r24
    163a:	39 2b       	or	r19, r25
    163c:	4a 2b       	or	r20, r26
    163e:	5b 2b       	or	r21, r27
    1640:	89 81       	ldd	r24, Y+1	; 0x01
    1642:	9a 81       	ldd	r25, Y+2	; 0x02
    1644:	ab 81       	ldd	r26, Y+3	; 0x03
    1646:	bc 81       	ldd	r27, Y+4	; 0x04
    1648:	88 27       	eor	r24, r24
    164a:	aa 27       	eor	r26, r26
    164c:	bb 27       	eor	r27, r27
    164e:	ba 2f       	mov	r27, r26
    1650:	a9 2f       	mov	r26, r25
    1652:	98 2f       	mov	r25, r24
    1654:	88 27       	eor	r24, r24
    1656:	28 2b       	or	r18, r24
    1658:	39 2b       	or	r19, r25
    165a:	4a 2b       	or	r20, r26
    165c:	5b 2b       	or	r21, r27
    165e:	89 81       	ldd	r24, Y+1	; 0x01
    1660:	9a 81       	ldd	r25, Y+2	; 0x02
    1662:	ab 81       	ldd	r26, Y+3	; 0x03
    1664:	bc 81       	ldd	r27, Y+4	; 0x04
    1666:	88 27       	eor	r24, r24
    1668:	99 27       	eor	r25, r25
    166a:	bb 27       	eor	r27, r27
    166c:	89 2f       	mov	r24, r25
    166e:	9a 2f       	mov	r25, r26
    1670:	ab 2f       	mov	r26, r27
    1672:	bb 27       	eor	r27, r27
    1674:	82 2b       	or	r24, r18
    1676:	93 2b       	or	r25, r19
    1678:	a4 2b       	or	r26, r20
    167a:	b5 2b       	or	r27, r21
    167c:	bc 01       	movw	r22, r24
    167e:	cd 01       	movw	r24, r26
    1680:	24 96       	adiw	r28, 0x04	; 4
    1682:	cd bf       	out	0x3d, r28	; 61
    1684:	de bf       	out	0x3e, r29	; 62
    1686:	df 91       	pop	r29
    1688:	cf 91       	pop	r28
    168a:	08 95       	ret
    168c:	8f 92       	push	r8
    168e:	9f 92       	push	r9
    1690:	af 92       	push	r10
    1692:	bf 92       	push	r11
    1694:	cf 92       	push	r12
    1696:	df 92       	push	r13
    1698:	ef 92       	push	r14
    169a:	ff 92       	push	r15
    169c:	0f 93       	push	r16
    169e:	1f 93       	push	r17
    16a0:	cf 93       	push	r28
    16a2:	df 93       	push	r29
    16a4:	cd b7       	in	r28, 0x3d	; 61
    16a6:	de b7       	in	r29, 0x3e	; 62
    16a8:	c3 57       	subi	r28, 0x73	; 115
    16aa:	d1 09       	sbc	r29, r1
    16ac:	cd bf       	out	0x3d, r28	; 61
    16ae:	de bf       	out	0x3e, r29	; 62
    16b0:	9e 01       	movw	r18, r28
    16b2:	20 59       	subi	r18, 0x90	; 144
    16b4:	3f 4f       	sbci	r19, 0xFF	; 255
    16b6:	f9 01       	movw	r30, r18
    16b8:	80 83       	st	Z, r24
    16ba:	91 83       	std	Z+1, r25	; 0x01
    16bc:	ce 01       	movw	r24, r28
    16be:	8e 58       	subi	r24, 0x8E	; 142
    16c0:	9f 4f       	sbci	r25, 0xFF	; 255
    16c2:	fc 01       	movw	r30, r24
    16c4:	60 83       	st	Z, r22
    16c6:	71 83       	std	Z+1, r23	; 0x01
    16c8:	9e 01       	movw	r18, r28
    16ca:	20 5b       	subi	r18, 0xB0	; 176
    16cc:	3f 4f       	sbci	r19, 0xFF	; 255
    16ce:	ce 01       	movw	r24, r28
    16d0:	80 59       	subi	r24, 0x90	; 144
    16d2:	9f 4f       	sbci	r25, 0xFF	; 255
    16d4:	fc 01       	movw	r30, r24
    16d6:	80 81       	ld	r24, Z
    16d8:	91 81       	ldd	r25, Z+1	; 0x01
    16da:	40 e2       	ldi	r20, 0x20	; 32
    16dc:	fc 01       	movw	r30, r24
    16de:	d9 01       	movw	r26, r18
    16e0:	01 90       	ld	r0, Z+
    16e2:	0d 92       	st	X+, r0
    16e4:	4a 95       	dec	r20
    16e6:	e1 f7       	brne	.-8      	;  0x16e0
    16e8:	19 82       	std	Y+1, r1	; 0x01
    16ea:	31 c0       	rjmp	.+98     	;  0x174e
    16ec:	89 81       	ldd	r24, Y+1	; 0x01
    16ee:	08 2f       	mov	r16, r24
    16f0:	10 e0       	ldi	r17, 0x00	; 0
    16f2:	89 81       	ldd	r24, Y+1	; 0x01
    16f4:	88 2f       	mov	r24, r24
    16f6:	90 e0       	ldi	r25, 0x00	; 0
    16f8:	88 0f       	add	r24, r24
    16fa:	99 1f       	adc	r25, r25
    16fc:	88 0f       	add	r24, r24
    16fe:	99 1f       	adc	r25, r25
    1700:	9e 01       	movw	r18, r28
    1702:	2e 58       	subi	r18, 0x8E	; 142
    1704:	3f 4f       	sbci	r19, 0xFF	; 255
    1706:	f9 01       	movw	r30, r18
    1708:	20 81       	ld	r18, Z
    170a:	31 81       	ldd	r19, Z+1	; 0x01
    170c:	82 0f       	add	r24, r18
    170e:	93 1f       	adc	r25, r19
    1710:	fc 01       	movw	r30, r24
    1712:	80 81       	ld	r24, Z
    1714:	91 81       	ldd	r25, Z+1	; 0x01
    1716:	a2 81       	ldd	r26, Z+2	; 0x02
    1718:	b3 81       	ldd	r27, Z+3	; 0x03
    171a:	bc 01       	movw	r22, r24
    171c:	cd 01       	movw	r24, r26
    171e:	0e 94 02 0b 	call	0x1604	;  0x1604
    1722:	dc 01       	movw	r26, r24
    1724:	cb 01       	movw	r24, r22
    1726:	98 01       	movw	r18, r16
    1728:	22 0f       	add	r18, r18
    172a:	33 1f       	adc	r19, r19
    172c:	22 0f       	add	r18, r18
    172e:	33 1f       	adc	r19, r19
    1730:	ae 01       	movw	r20, r28
    1732:	4f 5f       	subi	r20, 0xFF	; 255
    1734:	5f 4f       	sbci	r21, 0xFF	; 255
    1736:	24 0f       	add	r18, r20
    1738:	35 1f       	adc	r19, r21
    173a:	21 5f       	subi	r18, 0xF1	; 241
    173c:	3f 4f       	sbci	r19, 0xFF	; 255
    173e:	f9 01       	movw	r30, r18
    1740:	80 83       	st	Z, r24
    1742:	91 83       	std	Z+1, r25	; 0x01
    1744:	a2 83       	std	Z+2, r26	; 0x02
    1746:	b3 83       	std	Z+3, r27	; 0x03
    1748:	89 81       	ldd	r24, Y+1	; 0x01
    174a:	8f 5f       	subi	r24, 0xFF	; 255
    174c:	89 83       	std	Y+1, r24	; 0x01
    174e:	89 81       	ldd	r24, Y+1	; 0x01
    1750:	80 31       	cpi	r24, 0x10	; 16
    1752:	60 f2       	brcs	.-104    	;  0x16ec
    1754:	19 82       	std	Y+1, r1	; 0x01
    1756:	b2 c2       	rjmp	.+1380   	;  0x1cbc
    1758:	89 81       	ldd	r24, Y+1	; 0x01
    175a:	80 31       	cpi	r24, 0x10	; 16
    175c:	08 f4       	brcc	.+2      	;  0x1760
    175e:	39 c1       	rjmp	.+626    	;  0x19d2
    1760:	89 81       	ldd	r24, Y+1	; 0x01
    1762:	88 2f       	mov	r24, r24
    1764:	90 e0       	ldi	r25, 0x00	; 0
    1766:	8c 01       	movw	r16, r24
    1768:	0f 70       	andi	r16, 0x0F	; 15
    176a:	11 27       	eor	r17, r17
    176c:	89 81       	ldd	r24, Y+1	; 0x01
    176e:	88 2f       	mov	r24, r24
    1770:	90 e0       	ldi	r25, 0x00	; 0
    1772:	0e 96       	adiw	r24, 0x0e	; 14
    1774:	8f 70       	andi	r24, 0x0F	; 15
    1776:	90 78       	andi	r25, 0x80	; 128
    1778:	99 23       	and	r25, r25
    177a:	24 f4       	brge	.+8      	;  0x1784
    177c:	01 97       	sbiw	r24, 0x01	; 1
    177e:	80 6f       	ori	r24, 0xF0	; 240
    1780:	9f 6f       	ori	r25, 0xFF	; 255
    1782:	01 96       	adiw	r24, 0x01	; 1
    1784:	88 0f       	add	r24, r24
    1786:	99 1f       	adc	r25, r25
    1788:	88 0f       	add	r24, r24
    178a:	99 1f       	adc	r25, r25
    178c:	9e 01       	movw	r18, r28
    178e:	2f 5f       	subi	r18, 0xFF	; 255
    1790:	3f 4f       	sbci	r19, 0xFF	; 255
    1792:	82 0f       	add	r24, r18
    1794:	93 1f       	adc	r25, r19
    1796:	0f 96       	adiw	r24, 0x0f	; 15
    1798:	fc 01       	movw	r30, r24
    179a:	80 81       	ld	r24, Z
    179c:	91 81       	ldd	r25, Z+1	; 0x01
    179e:	a2 81       	ldd	r26, Z+2	; 0x02
    17a0:	b3 81       	ldd	r27, Z+3	; 0x03
    17a2:	41 e1       	ldi	r20, 0x11	; 17
    17a4:	bc 01       	movw	r22, r24
    17a6:	cd 01       	movw	r24, r26
    17a8:	0e 94 cd 0a 	call	0x159a	;  0x159a
    17ac:	6b 01       	movw	r12, r22
    17ae:	7c 01       	movw	r14, r24
    17b0:	89 81       	ldd	r24, Y+1	; 0x01
    17b2:	88 2f       	mov	r24, r24
    17b4:	90 e0       	ldi	r25, 0x00	; 0
    17b6:	0e 96       	adiw	r24, 0x0e	; 14
    17b8:	8f 70       	andi	r24, 0x0F	; 15
    17ba:	90 78       	andi	r25, 0x80	; 128
    17bc:	99 23       	and	r25, r25
    17be:	24 f4       	brge	.+8      	;  0x17c8
    17c0:	01 97       	sbiw	r24, 0x01	; 1
    17c2:	80 6f       	ori	r24, 0xF0	; 240
    17c4:	9f 6f       	ori	r25, 0xFF	; 255
    17c6:	01 96       	adiw	r24, 0x01	; 1
    17c8:	88 0f       	add	r24, r24
    17ca:	99 1f       	adc	r25, r25
    17cc:	88 0f       	add	r24, r24
    17ce:	99 1f       	adc	r25, r25
    17d0:	9e 01       	movw	r18, r28
    17d2:	2f 5f       	subi	r18, 0xFF	; 255
    17d4:	3f 4f       	sbci	r19, 0xFF	; 255
    17d6:	82 0f       	add	r24, r18
    17d8:	93 1f       	adc	r25, r19
    17da:	0f 96       	adiw	r24, 0x0f	; 15
    17dc:	fc 01       	movw	r30, r24
    17de:	80 81       	ld	r24, Z
    17e0:	91 81       	ldd	r25, Z+1	; 0x01
    17e2:	a2 81       	ldd	r26, Z+2	; 0x02
    17e4:	b3 81       	ldd	r27, Z+3	; 0x03
    17e6:	43 e1       	ldi	r20, 0x13	; 19
    17e8:	bc 01       	movw	r22, r24
    17ea:	cd 01       	movw	r24, r26
    17ec:	0e 94 cd 0a 	call	0x159a	;  0x159a
    17f0:	dc 01       	movw	r26, r24
    17f2:	cb 01       	movw	r24, r22
    17f4:	a7 01       	movw	r20, r14
    17f6:	96 01       	movw	r18, r12
    17f8:	28 27       	eor	r18, r24
    17fa:	39 27       	eor	r19, r25
    17fc:	4a 27       	eor	r20, r26
    17fe:	5b 27       	eor	r21, r27
    1800:	89 81       	ldd	r24, Y+1	; 0x01
    1802:	88 2f       	mov	r24, r24
    1804:	90 e0       	ldi	r25, 0x00	; 0
    1806:	0e 96       	adiw	r24, 0x0e	; 14
    1808:	8f 70       	andi	r24, 0x0F	; 15
    180a:	90 78       	andi	r25, 0x80	; 128
    180c:	99 23       	and	r25, r25
    180e:	24 f4       	brge	.+8      	;  0x1818
    1810:	01 97       	sbiw	r24, 0x01	; 1
    1812:	80 6f       	ori	r24, 0xF0	; 240
    1814:	9f 6f       	ori	r25, 0xFF	; 255
    1816:	01 96       	adiw	r24, 0x01	; 1
    1818:	88 0f       	add	r24, r24
    181a:	99 1f       	adc	r25, r25
    181c:	88 0f       	add	r24, r24
    181e:	99 1f       	adc	r25, r25
    1820:	be 01       	movw	r22, r28
    1822:	6f 5f       	subi	r22, 0xFF	; 255
    1824:	7f 4f       	sbci	r23, 0xFF	; 255
    1826:	86 0f       	add	r24, r22
    1828:	97 1f       	adc	r25, r23
    182a:	0f 96       	adiw	r24, 0x0f	; 15
    182c:	fc 01       	movw	r30, r24
    182e:	80 81       	ld	r24, Z
    1830:	91 81       	ldd	r25, Z+1	; 0x01
    1832:	a2 81       	ldd	r26, Z+2	; 0x02
    1834:	b3 81       	ldd	r27, Z+3	; 0x03
    1836:	07 2e       	mov	r0, r23
    1838:	7a e0       	ldi	r23, 0x0A	; 10
    183a:	b6 95       	lsr	r27
    183c:	a7 95       	ror	r26
    183e:	97 95       	ror	r25
    1840:	87 95       	ror	r24
    1842:	7a 95       	dec	r23
    1844:	d1 f7       	brne	.-12     	;  0x183a
    1846:	70 2d       	mov	r23, r0
    1848:	28 27       	eor	r18, r24
    184a:	39 27       	eor	r19, r25
    184c:	4a 27       	eor	r20, r26
    184e:	5b 27       	eor	r21, r27
    1850:	89 81       	ldd	r24, Y+1	; 0x01
    1852:	88 2f       	mov	r24, r24
    1854:	90 e0       	ldi	r25, 0x00	; 0
    1856:	09 96       	adiw	r24, 0x09	; 9
    1858:	8f 70       	andi	r24, 0x0F	; 15
    185a:	90 78       	andi	r25, 0x80	; 128
    185c:	99 23       	and	r25, r25
    185e:	24 f4       	brge	.+8      	;  0x1868
    1860:	01 97       	sbiw	r24, 0x01	; 1
    1862:	80 6f       	ori	r24, 0xF0	; 240
    1864:	9f 6f       	ori	r25, 0xFF	; 255
    1866:	01 96       	adiw	r24, 0x01	; 1
    1868:	88 0f       	add	r24, r24
    186a:	99 1f       	adc	r25, r25
    186c:	88 0f       	add	r24, r24
    186e:	99 1f       	adc	r25, r25
    1870:	be 01       	movw	r22, r28
    1872:	6f 5f       	subi	r22, 0xFF	; 255
    1874:	7f 4f       	sbci	r23, 0xFF	; 255
    1876:	86 0f       	add	r24, r22
    1878:	97 1f       	adc	r25, r23
    187a:	0f 96       	adiw	r24, 0x0f	; 15
    187c:	fc 01       	movw	r30, r24
    187e:	80 81       	ld	r24, Z
    1880:	91 81       	ldd	r25, Z+1	; 0x01
    1882:	a2 81       	ldd	r26, Z+2	; 0x02
    1884:	b3 81       	ldd	r27, Z+3	; 0x03
    1886:	69 01       	movw	r12, r18
    1888:	7a 01       	movw	r14, r20
    188a:	c8 0e       	add	r12, r24
    188c:	d9 1e       	adc	r13, r25
    188e:	ea 1e       	adc	r14, r26
    1890:	fb 1e       	adc	r15, r27
    1892:	89 81       	ldd	r24, Y+1	; 0x01
    1894:	88 2f       	mov	r24, r24
    1896:	90 e0       	ldi	r25, 0x00	; 0
    1898:	01 96       	adiw	r24, 0x01	; 1
    189a:	8f 70       	andi	r24, 0x0F	; 15
    189c:	90 78       	andi	r25, 0x80	; 128
    189e:	99 23       	and	r25, r25
    18a0:	24 f4       	brge	.+8      	;  0x18aa
    18a2:	01 97       	sbiw	r24, 0x01	; 1
    18a4:	80 6f       	ori	r24, 0xF0	; 240
    18a6:	9f 6f       	ori	r25, 0xFF	; 255
    18a8:	01 96       	adiw	r24, 0x01	; 1
    18aa:	88 0f       	add	r24, r24
    18ac:	99 1f       	adc	r25, r25
    18ae:	88 0f       	add	r24, r24
    18b0:	99 1f       	adc	r25, r25
    18b2:	9e 01       	movw	r18, r28
    18b4:	2f 5f       	subi	r18, 0xFF	; 255
    18b6:	3f 4f       	sbci	r19, 0xFF	; 255
    18b8:	82 0f       	add	r24, r18
    18ba:	93 1f       	adc	r25, r19
    18bc:	0f 96       	adiw	r24, 0x0f	; 15
    18be:	fc 01       	movw	r30, r24
    18c0:	80 81       	ld	r24, Z
    18c2:	91 81       	ldd	r25, Z+1	; 0x01
    18c4:	a2 81       	ldd	r26, Z+2	; 0x02
    18c6:	b3 81       	ldd	r27, Z+3	; 0x03
    18c8:	47 e0       	ldi	r20, 0x07	; 7
    18ca:	bc 01       	movw	r22, r24
    18cc:	cd 01       	movw	r24, r26
    18ce:	0e 94 cd 0a 	call	0x159a	;  0x159a
    18d2:	4b 01       	movw	r8, r22
    18d4:	5c 01       	movw	r10, r24
    18d6:	89 81       	ldd	r24, Y+1	; 0x01
    18d8:	88 2f       	mov	r24, r24
    18da:	90 e0       	ldi	r25, 0x00	; 0
    18dc:	01 96       	adiw	r24, 0x01	; 1
    18de:	8f 70       	andi	r24, 0x0F	; 15
    18e0:	90 78       	andi	r25, 0x80	; 128
    18e2:	99 23       	and	r25, r25
    18e4:	24 f4       	brge	.+8      	;  0x18ee
    18e6:	01 97       	sbiw	r24, 0x01	; 1
    18e8:	80 6f       	ori	r24, 0xF0	; 240
    18ea:	9f 6f       	ori	r25, 0xFF	; 255
    18ec:	01 96       	adiw	r24, 0x01	; 1
    18ee:	88 0f       	add	r24, r24
    18f0:	99 1f       	adc	r25, r25
    18f2:	88 0f       	add	r24, r24
    18f4:	99 1f       	adc	r25, r25
    18f6:	9e 01       	movw	r18, r28
    18f8:	2f 5f       	subi	r18, 0xFF	; 255
    18fa:	3f 4f       	sbci	r19, 0xFF	; 255
    18fc:	82 0f       	add	r24, r18
    18fe:	93 1f       	adc	r25, r19
    1900:	0f 96       	adiw	r24, 0x0f	; 15
    1902:	fc 01       	movw	r30, r24
    1904:	80 81       	ld	r24, Z
    1906:	91 81       	ldd	r25, Z+1	; 0x01
    1908:	a2 81       	ldd	r26, Z+2	; 0x02
    190a:	b3 81       	ldd	r27, Z+3	; 0x03
    190c:	42 e1       	ldi	r20, 0x12	; 18
    190e:	bc 01       	movw	r22, r24
    1910:	cd 01       	movw	r24, r26
    1912:	0e 94 cd 0a 	call	0x159a	;  0x159a
    1916:	dc 01       	movw	r26, r24
    1918:	cb 01       	movw	r24, r22
    191a:	a5 01       	movw	r20, r10
    191c:	94 01       	movw	r18, r8
    191e:	28 27       	eor	r18, r24
    1920:	39 27       	eor	r19, r25
    1922:	4a 27       	eor	r20, r26
    1924:	5b 27       	eor	r21, r27
    1926:	89 81       	ldd	r24, Y+1	; 0x01
    1928:	88 2f       	mov	r24, r24
    192a:	90 e0       	ldi	r25, 0x00	; 0
    192c:	01 96       	adiw	r24, 0x01	; 1
    192e:	8f 70       	andi	r24, 0x0F	; 15
    1930:	90 78       	andi	r25, 0x80	; 128
    1932:	99 23       	and	r25, r25
    1934:	24 f4       	brge	.+8      	;  0x193e
    1936:	01 97       	sbiw	r24, 0x01	; 1
    1938:	80 6f       	ori	r24, 0xF0	; 240
    193a:	9f 6f       	ori	r25, 0xFF	; 255
    193c:	01 96       	adiw	r24, 0x01	; 1
    193e:	88 0f       	add	r24, r24
    1940:	99 1f       	adc	r25, r25
    1942:	88 0f       	add	r24, r24
    1944:	99 1f       	adc	r25, r25
    1946:	be 01       	movw	r22, r28
    1948:	6f 5f       	subi	r22, 0xFF	; 255
    194a:	7f 4f       	sbci	r23, 0xFF	; 255
    194c:	86 0f       	add	r24, r22
    194e:	97 1f       	adc	r25, r23
    1950:	0f 96       	adiw	r24, 0x0f	; 15
    1952:	fc 01       	movw	r30, r24
    1954:	80 81       	ld	r24, Z
    1956:	91 81       	ldd	r25, Z+1	; 0x01
    1958:	a2 81       	ldd	r26, Z+2	; 0x02
    195a:	b3 81       	ldd	r27, Z+3	; 0x03
    195c:	68 94       	set
    195e:	12 f8       	bld	r1, 2
    1960:	b6 95       	lsr	r27
    1962:	a7 95       	ror	r26
    1964:	97 95       	ror	r25
    1966:	87 95       	ror	r24
    1968:	16 94       	lsr	r1
    196a:	d1 f7       	brne	.-12     	;  0x1960
    196c:	82 27       	eor	r24, r18
    196e:	93 27       	eor	r25, r19
    1970:	a4 27       	eor	r26, r20
    1972:	b5 27       	eor	r27, r21
    1974:	a7 01       	movw	r20, r14
    1976:	96 01       	movw	r18, r12
    1978:	28 0f       	add	r18, r24
    197a:	39 1f       	adc	r19, r25
    197c:	4a 1f       	adc	r20, r26
    197e:	5b 1f       	adc	r21, r27
    1980:	89 81       	ldd	r24, Y+1	; 0x01
    1982:	88 2f       	mov	r24, r24
    1984:	90 e0       	ldi	r25, 0x00	; 0
    1986:	8f 70       	andi	r24, 0x0F	; 15
    1988:	99 27       	eor	r25, r25
    198a:	88 0f       	add	r24, r24
    198c:	99 1f       	adc	r25, r25
    198e:	88 0f       	add	r24, r24
    1990:	99 1f       	adc	r25, r25
    1992:	be 01       	movw	r22, r28
    1994:	6f 5f       	subi	r22, 0xFF	; 255
    1996:	7f 4f       	sbci	r23, 0xFF	; 255
    1998:	86 0f       	add	r24, r22
    199a:	97 1f       	adc	r25, r23
    199c:	0f 96       	adiw	r24, 0x0f	; 15
    199e:	fc 01       	movw	r30, r24
    19a0:	80 81       	ld	r24, Z
    19a2:	91 81       	ldd	r25, Z+1	; 0x01
    19a4:	a2 81       	ldd	r26, Z+2	; 0x02
    19a6:	b3 81       	ldd	r27, Z+3	; 0x03
    19a8:	82 0f       	add	r24, r18
    19aa:	93 1f       	adc	r25, r19
    19ac:	a4 1f       	adc	r26, r20
    19ae:	b5 1f       	adc	r27, r21
    19b0:	98 01       	movw	r18, r16
    19b2:	22 0f       	add	r18, r18
    19b4:	33 1f       	adc	r19, r19
    19b6:	22 0f       	add	r18, r18
    19b8:	33 1f       	adc	r19, r19
    19ba:	ae 01       	movw	r20, r28
    19bc:	4f 5f       	subi	r20, 0xFF	; 255
    19be:	5f 4f       	sbci	r21, 0xFF	; 255
    19c0:	24 0f       	add	r18, r20
    19c2:	35 1f       	adc	r19, r21
    19c4:	21 5f       	subi	r18, 0xF1	; 241
    19c6:	3f 4f       	sbci	r19, 0xFF	; 255
    19c8:	f9 01       	movw	r30, r18
    19ca:	80 83       	st	Z, r24
    19cc:	91 83       	std	Z+1, r25	; 0x01
    19ce:	a2 83       	std	Z+2, r26	; 0x02
    19d0:	b3 83       	std	Z+3, r27	; 0x03
    19d2:	ce 01       	movw	r24, r28
    19d4:	80 5b       	subi	r24, 0xB0	; 176
    19d6:	9f 4f       	sbci	r25, 0xFF	; 255
    19d8:	fc 01       	movw	r30, r24
    19da:	c4 8c       	ldd	r12, Z+28	; 0x1c
    19dc:	d5 8c       	ldd	r13, Z+29	; 0x1d
    19de:	e6 8c       	ldd	r14, Z+30	; 0x1e
    19e0:	f7 8c       	ldd	r15, Z+31	; 0x1f
    19e2:	ce 01       	movw	r24, r28
    19e4:	80 5b       	subi	r24, 0xB0	; 176
    19e6:	9f 4f       	sbci	r25, 0xFF	; 255
    19e8:	fc 01       	movw	r30, r24
    19ea:	80 89       	ldd	r24, Z+16	; 0x10
    19ec:	91 89       	ldd	r25, Z+17	; 0x11
    19ee:	a2 89       	ldd	r26, Z+18	; 0x12
    19f0:	b3 89       	ldd	r27, Z+19	; 0x13
    19f2:	46 e0       	ldi	r20, 0x06	; 6
    19f4:	bc 01       	movw	r22, r24
    19f6:	cd 01       	movw	r24, r26
    19f8:	0e 94 cd 0a 	call	0x159a	;  0x159a
    19fc:	4b 01       	movw	r8, r22
    19fe:	5c 01       	movw	r10, r24
    1a00:	ce 01       	movw	r24, r28
    1a02:	80 5b       	subi	r24, 0xB0	; 176
    1a04:	9f 4f       	sbci	r25, 0xFF	; 255
    1a06:	fc 01       	movw	r30, r24
    1a08:	80 89       	ldd	r24, Z+16	; 0x10
    1a0a:	91 89       	ldd	r25, Z+17	; 0x11
    1a0c:	a2 89       	ldd	r26, Z+18	; 0x12
    1a0e:	b3 89       	ldd	r27, Z+19	; 0x13
    1a10:	4b e0       	ldi	r20, 0x0B	; 11
    1a12:	bc 01       	movw	r22, r24
    1a14:	cd 01       	movw	r24, r26
    1a16:	0e 94 cd 0a 	call	0x159a	;  0x159a
    1a1a:	dc 01       	movw	r26, r24
    1a1c:	cb 01       	movw	r24, r22
    1a1e:	88 26       	eor	r8, r24
    1a20:	99 26       	eor	r9, r25
    1a22:	aa 26       	eor	r10, r26
    1a24:	bb 26       	eor	r11, r27
    1a26:	ce 01       	movw	r24, r28
    1a28:	80 5b       	subi	r24, 0xB0	; 176
    1a2a:	9f 4f       	sbci	r25, 0xFF	; 255
    1a2c:	fc 01       	movw	r30, r24
    1a2e:	80 89       	ldd	r24, Z+16	; 0x10
    1a30:	91 89       	ldd	r25, Z+17	; 0x11
    1a32:	a2 89       	ldd	r26, Z+18	; 0x12
    1a34:	b3 89       	ldd	r27, Z+19	; 0x13
    1a36:	49 e1       	ldi	r20, 0x19	; 25
    1a38:	bc 01       	movw	r22, r24
    1a3a:	cd 01       	movw	r24, r26
    1a3c:	0e 94 cd 0a 	call	0x159a	;  0x159a
    1a40:	dc 01       	movw	r26, r24
    1a42:	cb 01       	movw	r24, r22
    1a44:	88 25       	eor	r24, r8
    1a46:	99 25       	eor	r25, r9
    1a48:	aa 25       	eor	r26, r10
    1a4a:	bb 25       	eor	r27, r11
    1a4c:	a7 01       	movw	r20, r14
    1a4e:	96 01       	movw	r18, r12
    1a50:	28 0f       	add	r18, r24
    1a52:	39 1f       	adc	r19, r25
    1a54:	4a 1f       	adc	r20, r26
    1a56:	5b 1f       	adc	r21, r27
    1a58:	ce 01       	movw	r24, r28
    1a5a:	80 5b       	subi	r24, 0xB0	; 176
    1a5c:	9f 4f       	sbci	r25, 0xFF	; 255
    1a5e:	fc 01       	movw	r30, r24
    1a60:	e0 88       	ldd	r14, Z+16	; 0x10
    1a62:	f1 88       	ldd	r15, Z+17	; 0x11
    1a64:	02 89       	ldd	r16, Z+18	; 0x12
    1a66:	13 89       	ldd	r17, Z+19	; 0x13
    1a68:	ce 01       	movw	r24, r28
    1a6a:	80 5b       	subi	r24, 0xB0	; 176
    1a6c:	9f 4f       	sbci	r25, 0xFF	; 255
    1a6e:	fc 01       	movw	r30, r24
    1a70:	84 89       	ldd	r24, Z+20	; 0x14
    1a72:	95 89       	ldd	r25, Z+21	; 0x15
    1a74:	a6 89       	ldd	r26, Z+22	; 0x16
    1a76:	b7 89       	ldd	r27, Z+23	; 0x17
    1a78:	e8 22       	and	r14, r24
    1a7a:	f9 22       	and	r15, r25
    1a7c:	0a 23       	and	r16, r26
    1a7e:	1b 23       	and	r17, r27
    1a80:	ce 01       	movw	r24, r28
    1a82:	80 5b       	subi	r24, 0xB0	; 176
    1a84:	9f 4f       	sbci	r25, 0xFF	; 255
    1a86:	fc 01       	movw	r30, r24
    1a88:	80 89       	ldd	r24, Z+16	; 0x10
    1a8a:	91 89       	ldd	r25, Z+17	; 0x11
    1a8c:	a2 89       	ldd	r26, Z+18	; 0x12
    1a8e:	b3 89       	ldd	r27, Z+19	; 0x13
    1a90:	5c 01       	movw	r10, r24
    1a92:	6d 01       	movw	r12, r26
    1a94:	a0 94       	com	r10
    1a96:	b0 94       	com	r11
    1a98:	c0 94       	com	r12
    1a9a:	d0 94       	com	r13
    1a9c:	ce 01       	movw	r24, r28
    1a9e:	80 5b       	subi	r24, 0xB0	; 176
    1aa0:	9f 4f       	sbci	r25, 0xFF	; 255
    1aa2:	fc 01       	movw	r30, r24
    1aa4:	80 8d       	ldd	r24, Z+24	; 0x18
    1aa6:	91 8d       	ldd	r25, Z+25	; 0x19
    1aa8:	a2 8d       	ldd	r26, Z+26	; 0x1a
    1aaa:	b3 8d       	ldd	r27, Z+27	; 0x1b
    1aac:	8a 21       	and	r24, r10
    1aae:	9b 21       	and	r25, r11
    1ab0:	ac 21       	and	r26, r12
    1ab2:	bd 21       	and	r27, r13
    1ab4:	8e 25       	eor	r24, r14
    1ab6:	9f 25       	eor	r25, r15
    1ab8:	a0 27       	eor	r26, r16
    1aba:	b1 27       	eor	r27, r17
    1abc:	28 0f       	add	r18, r24
    1abe:	39 1f       	adc	r19, r25
    1ac0:	4a 1f       	adc	r20, r26
    1ac2:	5b 1f       	adc	r21, r27
    1ac4:	89 81       	ldd	r24, Y+1	; 0x01
    1ac6:	88 2f       	mov	r24, r24
    1ac8:	90 e0       	ldi	r25, 0x00	; 0
    1aca:	88 0f       	add	r24, r24
    1acc:	99 1f       	adc	r25, r25
    1ace:	88 0f       	add	r24, r24
    1ad0:	99 1f       	adc	r25, r25
    1ad2:	86 59       	subi	r24, 0x96	; 150
    1ad4:	9d 4f       	sbci	r25, 0xFD	; 253
    1ad6:	8a 83       	std	Y+2, r24	; 0x02
    1ad8:	9b 83       	std	Y+3, r25	; 0x03
    1ada:	8a 81       	ldd	r24, Y+2	; 0x02
    1adc:	9b 81       	ldd	r25, Y+3	; 0x03
    1ade:	bc 01       	movw	r22, r24
    1ae0:	fb 01       	movw	r30, r22
    1ae2:	85 91       	lpm	r24, Z+
    1ae4:	95 91       	lpm	r25, Z+
    1ae6:	a5 91       	lpm	r26, Z+
    1ae8:	b4 91       	lpm	r27, Z
    1aea:	bf 01       	movw	r22, r30
    1aec:	8c 83       	std	Y+4, r24	; 0x04
    1aee:	9d 83       	std	Y+5, r25	; 0x05
    1af0:	ae 83       	std	Y+6, r26	; 0x06
    1af2:	bf 83       	std	Y+7, r27	; 0x07
    1af4:	6a 83       	std	Y+2, r22	; 0x02
    1af6:	7b 83       	std	Y+3, r23	; 0x03
    1af8:	8c 81       	ldd	r24, Y+4	; 0x04
    1afa:	9d 81       	ldd	r25, Y+5	; 0x05
    1afc:	ae 81       	ldd	r26, Y+6	; 0x06
    1afe:	bf 81       	ldd	r27, Y+7	; 0x07
    1b00:	28 0f       	add	r18, r24
    1b02:	39 1f       	adc	r19, r25
    1b04:	4a 1f       	adc	r20, r26
    1b06:	5b 1f       	adc	r21, r27
    1b08:	89 81       	ldd	r24, Y+1	; 0x01
    1b0a:	88 2f       	mov	r24, r24
    1b0c:	90 e0       	ldi	r25, 0x00	; 0
    1b0e:	8f 70       	andi	r24, 0x0F	; 15
    1b10:	99 27       	eor	r25, r25
    1b12:	88 0f       	add	r24, r24
    1b14:	99 1f       	adc	r25, r25
    1b16:	88 0f       	add	r24, r24
    1b18:	99 1f       	adc	r25, r25
    1b1a:	be 01       	movw	r22, r28
    1b1c:	6f 5f       	subi	r22, 0xFF	; 255
    1b1e:	7f 4f       	sbci	r23, 0xFF	; 255
    1b20:	86 0f       	add	r24, r22
    1b22:	97 1f       	adc	r25, r23
    1b24:	0f 96       	adiw	r24, 0x0f	; 15
    1b26:	fc 01       	movw	r30, r24
    1b28:	80 81       	ld	r24, Z
    1b2a:	91 81       	ldd	r25, Z+1	; 0x01
    1b2c:	a2 81       	ldd	r26, Z+2	; 0x02
    1b2e:	b3 81       	ldd	r27, Z+3	; 0x03
    1b30:	82 0f       	add	r24, r18
    1b32:	93 1f       	adc	r25, r19
    1b34:	a4 1f       	adc	r26, r20
    1b36:	b5 1f       	adc	r27, r21
    1b38:	88 87       	std	Y+8, r24	; 0x08
    1b3a:	99 87       	std	Y+9, r25	; 0x09
    1b3c:	aa 87       	std	Y+10, r26	; 0x0a
    1b3e:	bb 87       	std	Y+11, r27	; 0x0b
    1b40:	ce 01       	movw	r24, r28
    1b42:	80 5b       	subi	r24, 0xB0	; 176
    1b44:	9f 4f       	sbci	r25, 0xFF	; 255
    1b46:	fc 01       	movw	r30, r24
    1b48:	80 81       	ld	r24, Z
    1b4a:	91 81       	ldd	r25, Z+1	; 0x01
    1b4c:	a2 81       	ldd	r26, Z+2	; 0x02
    1b4e:	b3 81       	ldd	r27, Z+3	; 0x03
    1b50:	42 e0       	ldi	r20, 0x02	; 2
    1b52:	bc 01       	movw	r22, r24
    1b54:	cd 01       	movw	r24, r26
    1b56:	0e 94 cd 0a 	call	0x159a	;  0x159a
    1b5a:	6b 01       	movw	r12, r22
    1b5c:	7c 01       	movw	r14, r24
    1b5e:	ce 01       	movw	r24, r28
    1b60:	80 5b       	subi	r24, 0xB0	; 176
    1b62:	9f 4f       	sbci	r25, 0xFF	; 255
    1b64:	fc 01       	movw	r30, r24
    1b66:	80 81       	ld	r24, Z
    1b68:	91 81       	ldd	r25, Z+1	; 0x01
    1b6a:	a2 81       	ldd	r26, Z+2	; 0x02
    1b6c:	b3 81       	ldd	r27, Z+3	; 0x03
    1b6e:	4d e0       	ldi	r20, 0x0D	; 13
    1b70:	bc 01       	movw	r22, r24
    1b72:	cd 01       	movw	r24, r26
    1b74:	0e 94 cd 0a 	call	0x159a	;  0x159a
    1b78:	dc 01       	movw	r26, r24
    1b7a:	cb 01       	movw	r24, r22
    1b7c:	c8 26       	eor	r12, r24
    1b7e:	d9 26       	eor	r13, r25
    1b80:	ea 26       	eor	r14, r26
    1b82:	fb 26       	eor	r15, r27
    1b84:	ce 01       	movw	r24, r28
    1b86:	80 5b       	subi	r24, 0xB0	; 176
    1b88:	9f 4f       	sbci	r25, 0xFF	; 255
    1b8a:	fc 01       	movw	r30, r24
    1b8c:	80 81       	ld	r24, Z
    1b8e:	91 81       	ldd	r25, Z+1	; 0x01
    1b90:	a2 81       	ldd	r26, Z+2	; 0x02
    1b92:	b3 81       	ldd	r27, Z+3	; 0x03
    1b94:	46 e1       	ldi	r20, 0x16	; 22
    1b96:	bc 01       	movw	r22, r24
    1b98:	cd 01       	movw	r24, r26
    1b9a:	0e 94 cd 0a 	call	0x159a	;  0x159a
    1b9e:	dc 01       	movw	r26, r24
    1ba0:	cb 01       	movw	r24, r22
    1ba2:	a7 01       	movw	r20, r14
    1ba4:	96 01       	movw	r18, r12
    1ba6:	28 27       	eor	r18, r24
    1ba8:	39 27       	eor	r19, r25
    1baa:	4a 27       	eor	r20, r26
    1bac:	5b 27       	eor	r21, r27
    1bae:	ce 01       	movw	r24, r28
    1bb0:	80 5b       	subi	r24, 0xB0	; 176
    1bb2:	9f 4f       	sbci	r25, 0xFF	; 255
    1bb4:	fc 01       	movw	r30, r24
    1bb6:	e0 80       	ld	r14, Z
    1bb8:	f1 80       	ldd	r15, Z+1	; 0x01
    1bba:	02 81       	ldd	r16, Z+2	; 0x02
    1bbc:	13 81       	ldd	r17, Z+3	; 0x03
    1bbe:	ce 01       	movw	r24, r28
    1bc0:	80 5b       	subi	r24, 0xB0	; 176
    1bc2:	9f 4f       	sbci	r25, 0xFF	; 255
    1bc4:	fc 01       	movw	r30, r24
    1bc6:	84 81       	ldd	r24, Z+4	; 0x04
    1bc8:	95 81       	ldd	r25, Z+5	; 0x05
    1bca:	a6 81       	ldd	r26, Z+6	; 0x06
    1bcc:	b7 81       	ldd	r27, Z+7	; 0x07
    1bce:	e8 22       	and	r14, r24
    1bd0:	f9 22       	and	r15, r25
    1bd2:	0a 23       	and	r16, r26
    1bd4:	1b 23       	and	r17, r27
    1bd6:	ce 01       	movw	r24, r28
    1bd8:	80 5b       	subi	r24, 0xB0	; 176
    1bda:	9f 4f       	sbci	r25, 0xFF	; 255
    1bdc:	fc 01       	movw	r30, r24
    1bde:	a0 80       	ld	r10, Z
    1be0:	b1 80       	ldd	r11, Z+1	; 0x01
    1be2:	c2 80       	ldd	r12, Z+2	; 0x02
    1be4:	d3 80       	ldd	r13, Z+3	; 0x03
    1be6:	ce 01       	movw	r24, r28
    1be8:	80 5b       	subi	r24, 0xB0	; 176
    1bea:	9f 4f       	sbci	r25, 0xFF	; 255
    1bec:	fc 01       	movw	r30, r24
    1bee:	80 85       	ldd	r24, Z+8	; 0x08
    1bf0:	91 85       	ldd	r25, Z+9	; 0x09
    1bf2:	a2 85       	ldd	r26, Z+10	; 0x0a
    1bf4:	b3 85       	ldd	r27, Z+11	; 0x0b
    1bf6:	8a 21       	and	r24, r10
    1bf8:	9b 21       	and	r25, r11
    1bfa:	ac 21       	and	r26, r12
    1bfc:	bd 21       	and	r27, r13
    1bfe:	e8 26       	eor	r14, r24
    1c00:	f9 26       	eor	r15, r25
    1c02:	0a 27       	eor	r16, r26
    1c04:	1b 27       	eor	r17, r27
    1c06:	ce 01       	movw	r24, r28
    1c08:	80 5b       	subi	r24, 0xB0	; 176
    1c0a:	9f 4f       	sbci	r25, 0xFF	; 255
    1c0c:	fc 01       	movw	r30, r24
    1c0e:	a4 80       	ldd	r10, Z+4	; 0x04
    1c10:	b5 80       	ldd	r11, Z+5	; 0x05
    1c12:	c6 80       	ldd	r12, Z+6	; 0x06
    1c14:	d7 80       	ldd	r13, Z+7	; 0x07
    1c16:	ce 01       	movw	r24, r28
    1c18:	80 5b       	subi	r24, 0xB0	; 176
    1c1a:	9f 4f       	sbci	r25, 0xFF	; 255
    1c1c:	fc 01       	movw	r30, r24
    1c1e:	80 85       	ldd	r24, Z+8	; 0x08
    1c20:	91 85       	ldd	r25, Z+9	; 0x09
    1c22:	a2 85       	ldd	r26, Z+10	; 0x0a
    1c24:	b3 85       	ldd	r27, Z+11	; 0x0b
    1c26:	8a 21       	and	r24, r10
    1c28:	9b 21       	and	r25, r11
    1c2a:	ac 21       	and	r26, r12
    1c2c:	bd 21       	and	r27, r13
    1c2e:	8e 25       	eor	r24, r14
    1c30:	9f 25       	eor	r25, r15
    1c32:	a0 27       	eor	r26, r16
    1c34:	b1 27       	eor	r27, r17
    1c36:	82 0f       	add	r24, r18
    1c38:	93 1f       	adc	r25, r19
    1c3a:	a4 1f       	adc	r26, r20
    1c3c:	b5 1f       	adc	r27, r21
    1c3e:	8c 87       	std	Y+12, r24	; 0x0c
    1c40:	9d 87       	std	Y+13, r25	; 0x0d
    1c42:	ae 87       	std	Y+14, r26	; 0x0e
    1c44:	bf 87       	std	Y+15, r27	; 0x0f
    1c46:	9e 01       	movw	r18, r28
    1c48:	20 5b       	subi	r18, 0xB0	; 176
    1c4a:	3f 4f       	sbci	r19, 0xFF	; 255
    1c4c:	ce 01       	movw	r24, r28
    1c4e:	80 5b       	subi	r24, 0xB0	; 176
    1c50:	9f 4f       	sbci	r25, 0xFF	; 255
    1c52:	04 96       	adiw	r24, 0x04	; 4
    1c54:	4c e1       	ldi	r20, 0x1C	; 28
    1c56:	50 e0       	ldi	r21, 0x00	; 0
    1c58:	b9 01       	movw	r22, r18
    1c5a:	0e 94 f5 27 	call	0x4fea	;  0x4fea
    1c5e:	ce 01       	movw	r24, r28
    1c60:	80 5b       	subi	r24, 0xB0	; 176
    1c62:	9f 4f       	sbci	r25, 0xFF	; 255
    1c64:	fc 01       	movw	r30, r24
    1c66:	20 89       	ldd	r18, Z+16	; 0x10
    1c68:	31 89       	ldd	r19, Z+17	; 0x11
    1c6a:	42 89       	ldd	r20, Z+18	; 0x12
    1c6c:	53 89       	ldd	r21, Z+19	; 0x13
    1c6e:	88 85       	ldd	r24, Y+8	; 0x08
    1c70:	99 85       	ldd	r25, Y+9	; 0x09
    1c72:	aa 85       	ldd	r26, Y+10	; 0x0a
    1c74:	bb 85       	ldd	r27, Y+11	; 0x0b
    1c76:	82 0f       	add	r24, r18
    1c78:	93 1f       	adc	r25, r19
    1c7a:	a4 1f       	adc	r26, r20
    1c7c:	b5 1f       	adc	r27, r21
    1c7e:	9e 01       	movw	r18, r28
    1c80:	20 5b       	subi	r18, 0xB0	; 176
    1c82:	3f 4f       	sbci	r19, 0xFF	; 255
    1c84:	f9 01       	movw	r30, r18
    1c86:	80 8b       	std	Z+16, r24	; 0x10
    1c88:	91 8b       	std	Z+17, r25	; 0x11
    1c8a:	a2 8b       	std	Z+18, r26	; 0x12
    1c8c:	b3 8b       	std	Z+19, r27	; 0x13
    1c8e:	28 85       	ldd	r18, Y+8	; 0x08
    1c90:	39 85       	ldd	r19, Y+9	; 0x09
    1c92:	4a 85       	ldd	r20, Y+10	; 0x0a
    1c94:	5b 85       	ldd	r21, Y+11	; 0x0b
    1c96:	8c 85       	ldd	r24, Y+12	; 0x0c
    1c98:	9d 85       	ldd	r25, Y+13	; 0x0d
    1c9a:	ae 85       	ldd	r26, Y+14	; 0x0e
    1c9c:	bf 85       	ldd	r27, Y+15	; 0x0f
    1c9e:	82 0f       	add	r24, r18
    1ca0:	93 1f       	adc	r25, r19
    1ca2:	a4 1f       	adc	r26, r20
    1ca4:	b5 1f       	adc	r27, r21
    1ca6:	9e 01       	movw	r18, r28
    1ca8:	20 5b       	subi	r18, 0xB0	; 176
    1caa:	3f 4f       	sbci	r19, 0xFF	; 255
    1cac:	f9 01       	movw	r30, r18
    1cae:	80 83       	st	Z, r24
    1cb0:	91 83       	std	Z+1, r25	; 0x01
    1cb2:	a2 83       	std	Z+2, r26	; 0x02
    1cb4:	b3 83       	std	Z+3, r27	; 0x03
    1cb6:	89 81       	ldd	r24, Y+1	; 0x01
    1cb8:	8f 5f       	subi	r24, 0xFF	; 255
    1cba:	89 83       	std	Y+1, r24	; 0x01
    1cbc:	89 81       	ldd	r24, Y+1	; 0x01
    1cbe:	80 34       	cpi	r24, 0x40	; 64
    1cc0:	08 f4       	brcc	.+2      	;  0x1cc4
    1cc2:	4a cd       	rjmp	.-1388   	;  0x1758
    1cc4:	19 82       	std	Y+1, r1	; 0x01
    1cc6:	41 c0       	rjmp	.+130    	;  0x1d4a
    1cc8:	89 81       	ldd	r24, Y+1	; 0x01
    1cca:	68 2f       	mov	r22, r24
    1ccc:	70 e0       	ldi	r23, 0x00	; 0
    1cce:	89 81       	ldd	r24, Y+1	; 0x01
    1cd0:	88 2f       	mov	r24, r24
    1cd2:	90 e0       	ldi	r25, 0x00	; 0
    1cd4:	9e 01       	movw	r18, r28
    1cd6:	20 59       	subi	r18, 0x90	; 144
    1cd8:	3f 4f       	sbci	r19, 0xFF	; 255
    1cda:	f9 01       	movw	r30, r18
    1cdc:	20 81       	ld	r18, Z
    1cde:	31 81       	ldd	r19, Z+1	; 0x01
    1ce0:	88 0f       	add	r24, r24
    1ce2:	99 1f       	adc	r25, r25
    1ce4:	88 0f       	add	r24, r24
    1ce6:	99 1f       	adc	r25, r25
    1ce8:	82 0f       	add	r24, r18
    1cea:	93 1f       	adc	r25, r19
    1cec:	fc 01       	movw	r30, r24
    1cee:	20 81       	ld	r18, Z
    1cf0:	31 81       	ldd	r19, Z+1	; 0x01
    1cf2:	42 81       	ldd	r20, Z+2	; 0x02
    1cf4:	53 81       	ldd	r21, Z+3	; 0x03
    1cf6:	89 81       	ldd	r24, Y+1	; 0x01
    1cf8:	88 2f       	mov	r24, r24
    1cfa:	90 e0       	ldi	r25, 0x00	; 0
    1cfc:	fe 01       	movw	r30, r28
    1cfe:	e0 5b       	subi	r30, 0xB0	; 176
    1d00:	ff 4f       	sbci	r31, 0xFF	; 255
    1d02:	88 0f       	add	r24, r24
    1d04:	99 1f       	adc	r25, r25
    1d06:	88 0f       	add	r24, r24
    1d08:	99 1f       	adc	r25, r25
    1d0a:	8e 0f       	add	r24, r30
    1d0c:	9f 1f       	adc	r25, r31
    1d0e:	fc 01       	movw	r30, r24
    1d10:	80 81       	ld	r24, Z
    1d12:	91 81       	ldd	r25, Z+1	; 0x01
    1d14:	a2 81       	ldd	r26, Z+2	; 0x02
    1d16:	b3 81       	ldd	r27, Z+3	; 0x03
    1d18:	82 0f       	add	r24, r18
    1d1a:	93 1f       	adc	r25, r19
    1d1c:	a4 1f       	adc	r26, r20
    1d1e:	b5 1f       	adc	r27, r21
    1d20:	9e 01       	movw	r18, r28
    1d22:	20 59       	subi	r18, 0x90	; 144
    1d24:	3f 4f       	sbci	r19, 0xFF	; 255
    1d26:	f9 01       	movw	r30, r18
    1d28:	40 81       	ld	r20, Z
    1d2a:	51 81       	ldd	r21, Z+1	; 0x01
    1d2c:	9b 01       	movw	r18, r22
    1d2e:	22 0f       	add	r18, r18
    1d30:	33 1f       	adc	r19, r19
    1d32:	22 0f       	add	r18, r18
    1d34:	33 1f       	adc	r19, r19
    1d36:	24 0f       	add	r18, r20
    1d38:	35 1f       	adc	r19, r21
    1d3a:	f9 01       	movw	r30, r18
    1d3c:	80 83       	st	Z, r24
    1d3e:	91 83       	std	Z+1, r25	; 0x01
    1d40:	a2 83       	std	Z+2, r26	; 0x02
    1d42:	b3 83       	std	Z+3, r27	; 0x03
    1d44:	89 81       	ldd	r24, Y+1	; 0x01
    1d46:	8f 5f       	subi	r24, 0xFF	; 255
    1d48:	89 83       	std	Y+1, r24	; 0x01
    1d4a:	89 81       	ldd	r24, Y+1	; 0x01
    1d4c:	88 30       	cpi	r24, 0x08	; 8
    1d4e:	08 f4       	brcc	.+2      	;  0x1d52
    1d50:	bb cf       	rjmp	.-138    	;  0x1cc8
    1d52:	ce 01       	movw	r24, r28
    1d54:	80 59       	subi	r24, 0x90	; 144
    1d56:	9f 4f       	sbci	r25, 0xFF	; 255
    1d58:	fc 01       	movw	r30, r24
    1d5a:	80 81       	ld	r24, Z
    1d5c:	91 81       	ldd	r25, Z+1	; 0x01
    1d5e:	fc 01       	movw	r30, r24
    1d60:	80 a1       	ldd	r24, Z+32	; 0x20
    1d62:	91 a1       	ldd	r25, Z+33	; 0x21
    1d64:	a2 a1       	ldd	r26, Z+34	; 0x22
    1d66:	b3 a1       	ldd	r27, Z+35	; 0x23
    1d68:	01 96       	adiw	r24, 0x01	; 1
    1d6a:	a1 1d       	adc	r26, r1
    1d6c:	b1 1d       	adc	r27, r1
    1d6e:	9e 01       	movw	r18, r28
    1d70:	20 59       	subi	r18, 0x90	; 144
    1d72:	3f 4f       	sbci	r19, 0xFF	; 255
    1d74:	f9 01       	movw	r30, r18
    1d76:	20 81       	ld	r18, Z
    1d78:	31 81       	ldd	r19, Z+1	; 0x01
    1d7a:	f9 01       	movw	r30, r18
    1d7c:	80 a3       	std	Z+32, r24	; 0x20
    1d7e:	91 a3       	std	Z+33, r25	; 0x21
    1d80:	a2 a3       	std	Z+34, r26	; 0x22
    1d82:	b3 a3       	std	Z+35, r27	; 0x23
    1d84:	cd 58       	subi	r28, 0x8D	; 141
    1d86:	df 4f       	sbci	r29, 0xFF	; 255
    1d88:	cd bf       	out	0x3d, r28	; 61
    1d8a:	de bf       	out	0x3e, r29	; 62
    1d8c:	df 91       	pop	r29
    1d8e:	cf 91       	pop	r28
    1d90:	1f 91       	pop	r17
    1d92:	0f 91       	pop	r16
    1d94:	ff 90       	pop	r15
    1d96:	ef 90       	pop	r14
    1d98:	df 90       	pop	r13
    1d9a:	cf 90       	pop	r12
    1d9c:	bf 90       	pop	r11
    1d9e:	af 90       	pop	r10
    1da0:	9f 90       	pop	r9
    1da2:	8f 90       	pop	r8
    1da4:	08 95       	ret
    1da6:	af 92       	push	r10
    1da8:	bf 92       	push	r11
    1daa:	cf 92       	push	r12
    1dac:	df 92       	push	r13
    1dae:	ef 92       	push	r14
    1db0:	ff 92       	push	r15
    1db2:	0f 93       	push	r16
    1db4:	1f 93       	push	r17
    1db6:	cf 93       	push	r28
    1db8:	df 93       	push	r29
    1dba:	cd b7       	in	r28, 0x3d	; 61
    1dbc:	de b7       	in	r29, 0x3e	; 62
    1dbe:	cf 54       	subi	r28, 0x4F	; 79
    1dc0:	d1 09       	sbc	r29, r1
    1dc2:	cd bf       	out	0x3d, r28	; 61
    1dc4:	de bf       	out	0x3e, r29	; 62
    1dc6:	9e 01       	movw	r18, r28
    1dc8:	26 5b       	subi	r18, 0xB6	; 182
    1dca:	3f 4f       	sbci	r19, 0xFF	; 255
    1dcc:	f9 01       	movw	r30, r18
    1dce:	80 83       	st	Z, r24
    1dd0:	91 83       	std	Z+1, r25	; 0x01
    1dd2:	ce 01       	movw	r24, r28
    1dd4:	84 5b       	subi	r24, 0xB4	; 180
    1dd6:	9f 4f       	sbci	r25, 0xFF	; 255
    1dd8:	fc 01       	movw	r30, r24
    1dda:	60 83       	st	Z, r22
    1ddc:	71 83       	std	Z+1, r23	; 0x01
    1dde:	ce 01       	movw	r24, r28
    1de0:	82 5b       	subi	r24, 0xB2	; 178
    1de2:	9f 4f       	sbci	r25, 0xFF	; 255
    1de4:	fc 01       	movw	r30, r24
    1de6:	40 83       	st	Z, r20
    1de8:	51 83       	std	Z+1, r21	; 0x01
    1dea:	2a c0       	rjmp	.+84     	;  0x1e40
    1dec:	ce 01       	movw	r24, r28
    1dee:	84 5b       	subi	r24, 0xB4	; 180
    1df0:	9f 4f       	sbci	r25, 0xFF	; 255
    1df2:	fc 01       	movw	r30, r24
    1df4:	20 81       	ld	r18, Z
    1df6:	31 81       	ldd	r19, Z+1	; 0x01
    1df8:	ce 01       	movw	r24, r28
    1dfa:	86 5b       	subi	r24, 0xB6	; 182
    1dfc:	9f 4f       	sbci	r25, 0xFF	; 255
    1dfe:	fc 01       	movw	r30, r24
    1e00:	80 81       	ld	r24, Z
    1e02:	91 81       	ldd	r25, Z+1	; 0x01
    1e04:	b9 01       	movw	r22, r18
    1e06:	0e 94 46 0b 	call	0x168c	;  0x168c
    1e0a:	ce 01       	movw	r24, r28
    1e0c:	82 5b       	subi	r24, 0xB2	; 178
    1e0e:	9f 4f       	sbci	r25, 0xFF	; 255
    1e10:	9e 01       	movw	r18, r28
    1e12:	22 5b       	subi	r18, 0xB2	; 178
    1e14:	3f 4f       	sbci	r19, 0xFF	; 255
    1e16:	f9 01       	movw	r30, r18
    1e18:	20 81       	ld	r18, Z
    1e1a:	31 81       	ldd	r19, Z+1	; 0x01
    1e1c:	32 50       	subi	r19, 0x02	; 2
    1e1e:	fc 01       	movw	r30, r24
    1e20:	20 83       	st	Z, r18
    1e22:	31 83       	std	Z+1, r19	; 0x01
    1e24:	ce 01       	movw	r24, r28
    1e26:	84 5b       	subi	r24, 0xB4	; 180
    1e28:	9f 4f       	sbci	r25, 0xFF	; 255
    1e2a:	9e 01       	movw	r18, r28
    1e2c:	24 5b       	subi	r18, 0xB4	; 180
    1e2e:	3f 4f       	sbci	r19, 0xFF	; 255
    1e30:	f9 01       	movw	r30, r18
    1e32:	20 81       	ld	r18, Z
    1e34:	31 81       	ldd	r19, Z+1	; 0x01
    1e36:	20 5c       	subi	r18, 0xC0	; 192
    1e38:	3f 4f       	sbci	r19, 0xFF	; 255
    1e3a:	fc 01       	movw	r30, r24
    1e3c:	20 83       	st	Z, r18
    1e3e:	31 83       	std	Z+1, r19	; 0x01
    1e40:	ce 01       	movw	r24, r28
    1e42:	82 5b       	subi	r24, 0xB2	; 178
    1e44:	9f 4f       	sbci	r25, 0xFF	; 255
    1e46:	fc 01       	movw	r30, r24
    1e48:	80 81       	ld	r24, Z
    1e4a:	91 81       	ldd	r25, Z+1	; 0x01
    1e4c:	81 15       	cp	r24, r1
    1e4e:	92 40       	sbci	r25, 0x02	; 2
    1e50:	68 f6       	brcc	.-102    	;  0x1dec
    1e52:	ce 01       	movw	r24, r28
    1e54:	86 5b       	subi	r24, 0xB6	; 182
    1e56:	9f 4f       	sbci	r25, 0xFF	; 255
    1e58:	fc 01       	movw	r30, r24
    1e5a:	80 81       	ld	r24, Z
    1e5c:	91 81       	ldd	r25, Z+1	; 0x01
    1e5e:	fc 01       	movw	r30, r24
    1e60:	80 a1       	ldd	r24, Z+32	; 0x20
    1e62:	91 a1       	ldd	r25, Z+33	; 0x21
    1e64:	a2 a1       	ldd	r26, Z+34	; 0x22
    1e66:	b3 a1       	ldd	r27, Z+35	; 0x23
    1e68:	9c 01       	movw	r18, r24
    1e6a:	ad 01       	movw	r20, r26
    1e6c:	60 e0       	ldi	r22, 0x00	; 0
    1e6e:	70 e0       	ldi	r23, 0x00	; 0
    1e70:	cb 01       	movw	r24, r22
    1e72:	29 83       	std	Y+1, r18	; 0x01
    1e74:	3a 83       	std	Y+2, r19	; 0x02
    1e76:	4b 83       	std	Y+3, r20	; 0x03
    1e78:	5c 83       	std	Y+4, r21	; 0x04
    1e7a:	6d 83       	std	Y+5, r22	; 0x05
    1e7c:	7e 83       	std	Y+6, r23	; 0x06
    1e7e:	8f 83       	std	Y+7, r24	; 0x07
    1e80:	98 87       	std	Y+8, r25	; 0x08
    1e82:	29 81       	ldd	r18, Y+1	; 0x01
    1e84:	3a 81       	ldd	r19, Y+2	; 0x02
    1e86:	4b 81       	ldd	r20, Y+3	; 0x03
    1e88:	5c 81       	ldd	r21, Y+4	; 0x04
    1e8a:	6d 81       	ldd	r22, Y+5	; 0x05
    1e8c:	7e 81       	ldd	r23, Y+6	; 0x06
    1e8e:	8f 81       	ldd	r24, Y+7	; 0x07
    1e90:	98 85       	ldd	r25, Y+8	; 0x08
    1e92:	09 e0       	ldi	r16, 0x09	; 9
    1e94:	0e 94 30 25 	call	0x4a60	;  0x4a60
    1e98:	a2 2e       	mov	r10, r18
    1e9a:	b3 2e       	mov	r11, r19
    1e9c:	c4 2e       	mov	r12, r20
    1e9e:	d5 2e       	mov	r13, r21
    1ea0:	e6 2e       	mov	r14, r22
    1ea2:	f7 2e       	mov	r15, r23
    1ea4:	08 2f       	mov	r16, r24
    1ea6:	19 2f       	mov	r17, r25
    1ea8:	a9 82       	std	Y+1, r10	; 0x01
    1eaa:	ba 82       	std	Y+2, r11	; 0x02
    1eac:	cb 82       	std	Y+3, r12	; 0x03
    1eae:	dc 82       	std	Y+4, r13	; 0x04
    1eb0:	ed 82       	std	Y+5, r14	; 0x05
    1eb2:	fe 82       	std	Y+6, r15	; 0x06
    1eb4:	0f 83       	std	Y+7, r16	; 0x07
    1eb6:	18 87       	std	Y+8, r17	; 0x08
    1eb8:	ce 01       	movw	r24, r28
    1eba:	82 5b       	subi	r24, 0xB2	; 178
    1ebc:	9f 4f       	sbci	r25, 0xFF	; 255
    1ebe:	fc 01       	movw	r30, r24
    1ec0:	80 81       	ld	r24, Z
    1ec2:	91 81       	ldd	r25, Z+1	; 0x01
    1ec4:	5c 01       	movw	r10, r24
    1ec6:	c1 2c       	mov	r12, r1
    1ec8:	d1 2c       	mov	r13, r1
    1eca:	e1 2c       	mov	r14, r1
    1ecc:	f1 2c       	mov	r15, r1
    1ece:	87 01       	movw	r16, r14
    1ed0:	2a 2d       	mov	r18, r10
    1ed2:	3b 2d       	mov	r19, r11
    1ed4:	4c 2d       	mov	r20, r12
    1ed6:	5d 2d       	mov	r21, r13
    1ed8:	6e 2d       	mov	r22, r14
    1eda:	7f 2d       	mov	r23, r15
    1edc:	80 2f       	mov	r24, r16
    1ede:	91 2f       	mov	r25, r17
    1ee0:	a9 80       	ldd	r10, Y+1	; 0x01
    1ee2:	ba 80       	ldd	r11, Y+2	; 0x02
    1ee4:	cb 80       	ldd	r12, Y+3	; 0x03
    1ee6:	dc 80       	ldd	r13, Y+4	; 0x04
    1ee8:	ed 80       	ldd	r14, Y+5	; 0x05
    1eea:	fe 80       	ldd	r15, Y+6	; 0x06
    1eec:	0f 81       	ldd	r16, Y+7	; 0x07
    1eee:	18 85       	ldd	r17, Y+8	; 0x08
    1ef0:	0e 94 67 25 	call	0x4ace	;  0x4ace
    1ef4:	a2 2e       	mov	r10, r18
    1ef6:	b3 2e       	mov	r11, r19
    1ef8:	c4 2e       	mov	r12, r20
    1efa:	d5 2e       	mov	r13, r21
    1efc:	e6 2e       	mov	r14, r22
    1efe:	f7 2e       	mov	r15, r23
    1f00:	08 2f       	mov	r16, r24
    1f02:	19 2f       	mov	r17, r25
    1f04:	a9 82       	std	Y+1, r10	; 0x01
    1f06:	ba 82       	std	Y+2, r11	; 0x02
    1f08:	cb 82       	std	Y+3, r12	; 0x03
    1f0a:	dc 82       	std	Y+4, r13	; 0x04
    1f0c:	ed 82       	std	Y+5, r14	; 0x05
    1f0e:	fe 82       	std	Y+6, r15	; 0x06
    1f10:	0f 83       	std	Y+7, r16	; 0x07
    1f12:	18 87       	std	Y+8, r17	; 0x08
    1f14:	ce 01       	movw	r24, r28
    1f16:	82 5b       	subi	r24, 0xB2	; 178
    1f18:	9f 4f       	sbci	r25, 0xFF	; 255
    1f1a:	fc 01       	movw	r30, r24
    1f1c:	80 81       	ld	r24, Z
    1f1e:	91 81       	ldd	r25, Z+1	; 0x01
    1f20:	ac 01       	movw	r20, r24
    1f22:	56 95       	lsr	r21
    1f24:	47 95       	ror	r20
    1f26:	56 95       	lsr	r21
    1f28:	47 95       	ror	r20
    1f2a:	56 95       	lsr	r21
    1f2c:	47 95       	ror	r20
    1f2e:	ce 01       	movw	r24, r28
    1f30:	84 5b       	subi	r24, 0xB4	; 180
    1f32:	9f 4f       	sbci	r25, 0xFF	; 255
    1f34:	fc 01       	movw	r30, r24
    1f36:	20 81       	ld	r18, Z
    1f38:	31 81       	ldd	r19, Z+1	; 0x01
    1f3a:	ce 01       	movw	r24, r28
    1f3c:	0a 96       	adiw	r24, 0x0a	; 10
    1f3e:	b9 01       	movw	r22, r18
    1f40:	0e 94 ec 27 	call	0x4fd8	;  0x4fd8
    1f44:	ce 01       	movw	r24, r28
    1f46:	82 5b       	subi	r24, 0xB2	; 178
    1f48:	9f 4f       	sbci	r25, 0xFF	; 255
    1f4a:	fc 01       	movw	r30, r24
    1f4c:	80 81       	ld	r24, Z
    1f4e:	91 81       	ldd	r25, Z+1	; 0x01
    1f50:	87 70       	andi	r24, 0x07	; 7
    1f52:	99 27       	eor	r25, r25
    1f54:	89 2b       	or	r24, r25
    1f56:	51 f1       	breq	.+84     	;  0x1fac
    1f58:	ce 01       	movw	r24, r28
    1f5a:	82 5b       	subi	r24, 0xB2	; 178
    1f5c:	9f 4f       	sbci	r25, 0xFF	; 255
    1f5e:	fc 01       	movw	r30, r24
    1f60:	80 81       	ld	r24, Z
    1f62:	91 81       	ldd	r25, Z+1	; 0x01
    1f64:	96 95       	lsr	r25
    1f66:	87 95       	ror	r24
    1f68:	96 95       	lsr	r25
    1f6a:	87 95       	ror	r24
    1f6c:	96 95       	lsr	r25
    1f6e:	87 95       	ror	r24
    1f70:	9e 01       	movw	r18, r28
    1f72:	22 5b       	subi	r18, 0xB2	; 178
    1f74:	3f 4f       	sbci	r19, 0xFF	; 255
    1f76:	f9 01       	movw	r30, r18
    1f78:	20 81       	ld	r18, Z
    1f7a:	31 81       	ldd	r19, Z+1	; 0x01
    1f7c:	36 95       	lsr	r19
    1f7e:	27 95       	ror	r18
    1f80:	36 95       	lsr	r19
    1f82:	27 95       	ror	r18
    1f84:	36 95       	lsr	r19
    1f86:	27 95       	ror	r18
    1f88:	ae 01       	movw	r20, r28
    1f8a:	44 5b       	subi	r20, 0xB4	; 180
    1f8c:	5f 4f       	sbci	r21, 0xFF	; 255
    1f8e:	fa 01       	movw	r30, r20
    1f90:	40 81       	ld	r20, Z
    1f92:	51 81       	ldd	r21, Z+1	; 0x01
    1f94:	24 0f       	add	r18, r20
    1f96:	35 1f       	adc	r19, r21
    1f98:	f9 01       	movw	r30, r18
    1f9a:	40 81       	ld	r20, Z
    1f9c:	9e 01       	movw	r18, r28
    1f9e:	26 5f       	subi	r18, 0xF6	; 246
    1fa0:	3f 4f       	sbci	r19, 0xFF	; 255
    1fa2:	82 0f       	add	r24, r18
    1fa4:	93 1f       	adc	r25, r19
    1fa6:	fc 01       	movw	r30, r24
    1fa8:	40 83       	st	Z, r20
    1faa:	13 c0       	rjmp	.+38     	;  0x1fd2
    1fac:	ce 01       	movw	r24, r28
    1fae:	82 5b       	subi	r24, 0xB2	; 178
    1fb0:	9f 4f       	sbci	r25, 0xFF	; 255
    1fb2:	fc 01       	movw	r30, r24
    1fb4:	80 81       	ld	r24, Z
    1fb6:	91 81       	ldd	r25, Z+1	; 0x01
    1fb8:	96 95       	lsr	r25
    1fba:	87 95       	ror	r24
    1fbc:	96 95       	lsr	r25
    1fbe:	87 95       	ror	r24
    1fc0:	96 95       	lsr	r25
    1fc2:	87 95       	ror	r24
    1fc4:	9e 01       	movw	r18, r28
    1fc6:	26 5f       	subi	r18, 0xF6	; 246
    1fc8:	3f 4f       	sbci	r19, 0xFF	; 255
    1fca:	82 0f       	add	r24, r18
    1fcc:	93 1f       	adc	r25, r19
    1fce:	fc 01       	movw	r30, r24
    1fd0:	10 82       	st	Z, r1
    1fd2:	ce 01       	movw	r24, r28
    1fd4:	82 5b       	subi	r24, 0xB2	; 178
    1fd6:	9f 4f       	sbci	r25, 0xFF	; 255
    1fd8:	fc 01       	movw	r30, r24
    1fda:	80 81       	ld	r24, Z
    1fdc:	91 81       	ldd	r25, Z+1	; 0x01
    1fde:	96 95       	lsr	r25
    1fe0:	87 95       	ror	r24
    1fe2:	96 95       	lsr	r25
    1fe4:	87 95       	ror	r24
    1fe6:	96 95       	lsr	r25
    1fe8:	87 95       	ror	r24
    1fea:	9e 01       	movw	r18, r28
    1fec:	26 5f       	subi	r18, 0xF6	; 246
    1fee:	3f 4f       	sbci	r19, 0xFF	; 255
    1ff0:	28 0f       	add	r18, r24
    1ff2:	39 1f       	adc	r19, r25
    1ff4:	f9 01       	movw	r30, r18
    1ff6:	20 81       	ld	r18, Z
    1ff8:	62 2f       	mov	r22, r18
    1ffa:	9e 01       	movw	r18, r28
    1ffc:	22 5b       	subi	r18, 0xB2	; 178
    1ffe:	3f 4f       	sbci	r19, 0xFF	; 255
    2000:	f9 01       	movw	r30, r18
    2002:	20 81       	ld	r18, Z
    2004:	31 81       	ldd	r19, Z+1	; 0x01
    2006:	a9 01       	movw	r20, r18
    2008:	47 70       	andi	r20, 0x07	; 7
    200a:	55 27       	eor	r21, r21
    200c:	20 e8       	ldi	r18, 0x80	; 128
    200e:	30 e0       	ldi	r19, 0x00	; 0
    2010:	02 c0       	rjmp	.+4      	;  0x2016
    2012:	35 95       	asr	r19
    2014:	27 95       	ror	r18
    2016:	4a 95       	dec	r20
    2018:	e2 f7       	brpl	.-8      	;  0x2012
    201a:	26 2b       	or	r18, r22
    201c:	42 2f       	mov	r20, r18
    201e:	9e 01       	movw	r18, r28
    2020:	26 5f       	subi	r18, 0xF6	; 246
    2022:	3f 4f       	sbci	r19, 0xFF	; 255
    2024:	82 0f       	add	r24, r18
    2026:	93 1f       	adc	r25, r19
    2028:	fc 01       	movw	r30, r24
    202a:	40 83       	st	Z, r20
    202c:	ce 01       	movw	r24, r28
    202e:	82 5b       	subi	r24, 0xB2	; 178
    2030:	9f 4f       	sbci	r25, 0xFF	; 255
    2032:	fc 01       	movw	r30, r24
    2034:	80 81       	ld	r24, Z
    2036:	91 81       	ldd	r25, Z+1	; 0x01
    2038:	9c 01       	movw	r18, r24
    203a:	36 95       	lsr	r19
    203c:	27 95       	ror	r18
    203e:	36 95       	lsr	r19
    2040:	27 95       	ror	r18
    2042:	36 95       	lsr	r19
    2044:	27 95       	ror	r18
    2046:	ce 01       	movw	r24, r28
    2048:	82 5b       	subi	r24, 0xB2	; 178
    204a:	9f 4f       	sbci	r25, 0xFF	; 255
    204c:	2f 5f       	subi	r18, 0xFF	; 255
    204e:	3f 4f       	sbci	r19, 0xFF	; 255
    2050:	fc 01       	movw	r30, r24
    2052:	20 83       	st	Z, r18
    2054:	31 83       	std	Z+1, r19	; 0x01
    2056:	ce 01       	movw	r24, r28
    2058:	82 5b       	subi	r24, 0xB2	; 178
    205a:	9f 4f       	sbci	r25, 0xFF	; 255
    205c:	fc 01       	movw	r30, r24
    205e:	80 81       	ld	r24, Z
    2060:	91 81       	ldd	r25, Z+1	; 0x01
    2062:	c9 97       	sbiw	r24, 0x39	; 57
    2064:	60 f1       	brcs	.+88     	;  0x20be
    2066:	ce 01       	movw	r24, r28
    2068:	82 5b       	subi	r24, 0xB2	; 178
    206a:	9f 4f       	sbci	r25, 0xFF	; 255
    206c:	20 e4       	ldi	r18, 0x40	; 64
    206e:	30 e0       	ldi	r19, 0x00	; 0
    2070:	fc 01       	movw	r30, r24
    2072:	80 81       	ld	r24, Z
    2074:	91 81       	ldd	r25, Z+1	; 0x01
    2076:	a9 01       	movw	r20, r18
    2078:	48 1b       	sub	r20, r24
    207a:	59 0b       	sbc	r21, r25
    207c:	9e 01       	movw	r18, r28
    207e:	26 5f       	subi	r18, 0xF6	; 246
    2080:	3f 4f       	sbci	r19, 0xFF	; 255
    2082:	ce 01       	movw	r24, r28
    2084:	82 5b       	subi	r24, 0xB2	; 178
    2086:	9f 4f       	sbci	r25, 0xFF	; 255
    2088:	fc 01       	movw	r30, r24
    208a:	80 81       	ld	r24, Z
    208c:	91 81       	ldd	r25, Z+1	; 0x01
    208e:	82 0f       	add	r24, r18
    2090:	93 1f       	adc	r25, r19
    2092:	60 e0       	ldi	r22, 0x00	; 0
    2094:	70 e0       	ldi	r23, 0x00	; 0
    2096:	0e 94 07 28 	call	0x500e	;  0x500e
    209a:	9e 01       	movw	r18, r28
    209c:	26 5f       	subi	r18, 0xF6	; 246
    209e:	3f 4f       	sbci	r19, 0xFF	; 255
    20a0:	ce 01       	movw	r24, r28
    20a2:	86 5b       	subi	r24, 0xB6	; 182
    20a4:	9f 4f       	sbci	r25, 0xFF	; 255
    20a6:	fc 01       	movw	r30, r24
    20a8:	80 81       	ld	r24, Z
    20aa:	91 81       	ldd	r25, Z+1	; 0x01
    20ac:	b9 01       	movw	r22, r18
    20ae:	0e 94 46 0b 	call	0x168c	;  0x168c
    20b2:	ce 01       	movw	r24, r28
    20b4:	82 5b       	subi	r24, 0xB2	; 178
    20b6:	9f 4f       	sbci	r25, 0xFF	; 255
    20b8:	fc 01       	movw	r30, r24
    20ba:	10 82       	st	Z, r1
    20bc:	11 82       	std	Z+1, r1	; 0x01
    20be:	ce 01       	movw	r24, r28
    20c0:	82 5b       	subi	r24, 0xB2	; 178
    20c2:	9f 4f       	sbci	r25, 0xFF	; 255
    20c4:	28 e3       	ldi	r18, 0x38	; 56
    20c6:	30 e0       	ldi	r19, 0x00	; 0
    20c8:	fc 01       	movw	r30, r24
    20ca:	80 81       	ld	r24, Z
    20cc:	91 81       	ldd	r25, Z+1	; 0x01
    20ce:	a9 01       	movw	r20, r18
    20d0:	48 1b       	sub	r20, r24
    20d2:	59 0b       	sbc	r21, r25
    20d4:	9e 01       	movw	r18, r28
    20d6:	26 5f       	subi	r18, 0xF6	; 246
    20d8:	3f 4f       	sbci	r19, 0xFF	; 255
    20da:	ce 01       	movw	r24, r28
    20dc:	82 5b       	subi	r24, 0xB2	; 178
    20de:	9f 4f       	sbci	r25, 0xFF	; 255
    20e0:	fc 01       	movw	r30, r24
    20e2:	80 81       	ld	r24, Z
    20e4:	91 81       	ldd	r25, Z+1	; 0x01
    20e6:	82 0f       	add	r24, r18
    20e8:	93 1f       	adc	r25, r19
    20ea:	60 e0       	ldi	r22, 0x00	; 0
    20ec:	70 e0       	ldi	r23, 0x00	; 0
    20ee:	0e 94 07 28 	call	0x500e	;  0x500e
    20f2:	87 e0       	ldi	r24, 0x07	; 7
    20f4:	89 87       	std	Y+9, r24	; 0x09
    20f6:	89 85       	ldd	r24, Y+9	; 0x09
    20f8:	88 2f       	mov	r24, r24
    20fa:	90 e0       	ldi	r25, 0x00	; 0
    20fc:	c8 96       	adiw	r24, 0x38	; 56
    20fe:	49 81       	ldd	r20, Y+1	; 0x01
    2100:	9e 01       	movw	r18, r28
    2102:	26 5f       	subi	r18, 0xF6	; 246
    2104:	3f 4f       	sbci	r19, 0xFF	; 255
    2106:	82 0f       	add	r24, r18
    2108:	93 1f       	adc	r25, r19
    210a:	fc 01       	movw	r30, r24
    210c:	40 83       	st	Z, r20
    210e:	29 81       	ldd	r18, Y+1	; 0x01
    2110:	3a 81       	ldd	r19, Y+2	; 0x02
    2112:	4b 81       	ldd	r20, Y+3	; 0x03
    2114:	5c 81       	ldd	r21, Y+4	; 0x04
    2116:	6d 81       	ldd	r22, Y+5	; 0x05
    2118:	7e 81       	ldd	r23, Y+6	; 0x06
    211a:	8f 81       	ldd	r24, Y+7	; 0x07
    211c:	98 85       	ldd	r25, Y+8	; 0x08
    211e:	08 e0       	ldi	r16, 0x08	; 8
    2120:	0e 94 4b 25 	call	0x4a96	;  0x4a96
    2124:	a2 2e       	mov	r10, r18
    2126:	b3 2e       	mov	r11, r19
    2128:	c4 2e       	mov	r12, r20
    212a:	d5 2e       	mov	r13, r21
    212c:	e6 2e       	mov	r14, r22
    212e:	f7 2e       	mov	r15, r23
    2130:	08 2f       	mov	r16, r24
    2132:	19 2f       	mov	r17, r25
    2134:	a9 82       	std	Y+1, r10	; 0x01
    2136:	ba 82       	std	Y+2, r11	; 0x02
    2138:	cb 82       	std	Y+3, r12	; 0x03
    213a:	dc 82       	std	Y+4, r13	; 0x04
    213c:	ed 82       	std	Y+5, r14	; 0x05
    213e:	fe 82       	std	Y+6, r15	; 0x06
    2140:	0f 83       	std	Y+7, r16	; 0x07
    2142:	18 87       	std	Y+8, r17	; 0x08
    2144:	89 85       	ldd	r24, Y+9	; 0x09
    2146:	9f ef       	ldi	r25, 0xFF	; 255
    2148:	98 0f       	add	r25, r24
    214a:	99 87       	std	Y+9, r25	; 0x09
    214c:	88 23       	and	r24, r24
    214e:	99 f6       	brne	.-90     	;  0x20f6
    2150:	9e 01       	movw	r18, r28
    2152:	26 5f       	subi	r18, 0xF6	; 246
    2154:	3f 4f       	sbci	r19, 0xFF	; 255
    2156:	ce 01       	movw	r24, r28
    2158:	86 5b       	subi	r24, 0xB6	; 182
    215a:	9f 4f       	sbci	r25, 0xFF	; 255
    215c:	fc 01       	movw	r30, r24
    215e:	80 81       	ld	r24, Z
    2160:	91 81       	ldd	r25, Z+1	; 0x01
    2162:	b9 01       	movw	r22, r18
    2164:	0e 94 46 0b 	call	0x168c	;  0x168c
    2168:	c1 5b       	subi	r28, 0xB1	; 177
    216a:	df 4f       	sbci	r29, 0xFF	; 255
    216c:	cd bf       	out	0x3d, r28	; 61
    216e:	de bf       	out	0x3e, r29	; 62
    2170:	df 91       	pop	r29
    2172:	cf 91       	pop	r28
    2174:	1f 91       	pop	r17
    2176:	0f 91       	pop	r16
    2178:	ff 90       	pop	r15
    217a:	ef 90       	pop	r14
    217c:	df 90       	pop	r13
    217e:	cf 90       	pop	r12
    2180:	bf 90       	pop	r11
    2182:	af 90       	pop	r10
    2184:	08 95       	ret
    2186:	cf 93       	push	r28
    2188:	df 93       	push	r29
    218a:	cd b7       	in	r28, 0x3d	; 61
    218c:	de b7       	in	r29, 0x3e	; 62
    218e:	ac 97       	sbiw	r28, 0x2c	; 44
    2190:	cd bf       	out	0x3d, r28	; 61
    2192:	de bf       	out	0x3e, r29	; 62
    2194:	8d a3       	std	Y+37, r24	; 0x25
    2196:	9e a3       	std	Y+38, r25	; 0x26
    2198:	6f a3       	std	Y+39, r22	; 0x27
    219a:	78 a7       	std	Y+40, r23	; 0x28
    219c:	29 a7       	std	Y+41, r18	; 0x29
    219e:	3a a7       	std	Y+42, r19	; 0x2a
    21a0:	4b a7       	std	Y+43, r20	; 0x2b
    21a2:	5c a7       	std	Y+44, r21	; 0x2c
    21a4:	ce 01       	movw	r24, r28
    21a6:	01 96       	adiw	r24, 0x01	; 1
    21a8:	0e 94 b1 0a 	call	0x1562	;  0x1562
    21ac:	18 c0       	rjmp	.+48     	;  0x21de
    21ae:	8f a1       	ldd	r24, Y+39	; 0x27
    21b0:	98 a5       	ldd	r25, Y+40	; 0x28
    21b2:	bc 01       	movw	r22, r24
    21b4:	ce 01       	movw	r24, r28
    21b6:	01 96       	adiw	r24, 0x01	; 1
    21b8:	0e 94 46 0b 	call	0x168c	;  0x168c
    21bc:	8f a1       	ldd	r24, Y+39	; 0x27
    21be:	98 a5       	ldd	r25, Y+40	; 0x28
    21c0:	80 5c       	subi	r24, 0xC0	; 192
    21c2:	9f 4f       	sbci	r25, 0xFF	; 255
    21c4:	8f a3       	std	Y+39, r24	; 0x27
    21c6:	98 a7       	std	Y+40, r25	; 0x28
    21c8:	89 a5       	ldd	r24, Y+41	; 0x29
    21ca:	9a a5       	ldd	r25, Y+42	; 0x2a
    21cc:	ab a5       	ldd	r26, Y+43	; 0x2b
    21ce:	bc a5       	ldd	r27, Y+44	; 0x2c
    21d0:	92 50       	subi	r25, 0x02	; 2
    21d2:	a1 09       	sbc	r26, r1
    21d4:	b1 09       	sbc	r27, r1
    21d6:	89 a7       	std	Y+41, r24	; 0x29
    21d8:	9a a7       	std	Y+42, r25	; 0x2a
    21da:	ab a7       	std	Y+43, r26	; 0x2b
    21dc:	bc a7       	std	Y+44, r27	; 0x2c
    21de:	89 a5       	ldd	r24, Y+41	; 0x29
    21e0:	9a a5       	ldd	r25, Y+42	; 0x2a
    21e2:	ab a5       	ldd	r26, Y+43	; 0x2b
    21e4:	bc a5       	ldd	r27, Y+44	; 0x2c
    21e6:	81 15       	cp	r24, r1
    21e8:	92 40       	sbci	r25, 0x02	; 2
    21ea:	a1 05       	cpc	r26, r1
    21ec:	b1 05       	cpc	r27, r1
    21ee:	f8 f6       	brcc	.-66     	;  0x21ae
    21f0:	29 a5       	ldd	r18, Y+41	; 0x29
    21f2:	3a a5       	ldd	r19, Y+42	; 0x2a
    21f4:	8f a1       	ldd	r24, Y+39	; 0x27
    21f6:	98 a5       	ldd	r25, Y+40	; 0x28
    21f8:	a9 01       	movw	r20, r18
    21fa:	bc 01       	movw	r22, r24
    21fc:	ce 01       	movw	r24, r28
    21fe:	01 96       	adiw	r24, 0x01	; 1
    2200:	0e 94 d3 0e 	call	0x1da6	;  0x1da6
    2204:	8d a1       	ldd	r24, Y+37	; 0x25
    2206:	9e a1       	ldd	r25, Y+38	; 0x26
    2208:	9e 01       	movw	r18, r28
    220a:	2f 5f       	subi	r18, 0xFF	; 255
    220c:	3f 4f       	sbci	r19, 0xFF	; 255
    220e:	b9 01       	movw	r22, r18
    2210:	0e 94 10 11 	call	0x2220	;  0x2220
    2214:	ac 96       	adiw	r28, 0x2c	; 44
    2216:	cd bf       	out	0x3d, r28	; 61
    2218:	de bf       	out	0x3e, r29	; 62
    221a:	df 91       	pop	r29
    221c:	cf 91       	pop	r28
    221e:	08 95       	ret
	
	
    2220:	0f 93       	push	r16
    2222:	1f 93       	push	r17
    2224:	cf 93       	push	r28
    2226:	df 93       	push	r29
    2228:	cd b7       	in	r28, 0x3d	; 61
    222a:	de b7       	in	r29, 0x3e	; 62
    222c:	25 97       	sbiw	r28, 0x05	; 5
    222e:	cd bf       	out	0x3d, r28	; 61
    2230:	de bf       	out	0x3e, r29	; 62
    2232:	8a 83       	std	Y+2, r24	; 0x02
    2234:	9b 83       	std	Y+3, r25	; 0x03
    2236:	6c 83       	std	Y+4, r22	; 0x04
    2238:	7d 83       	std	Y+5, r23	; 0x05
    223a:	19 82       	std	Y+1, r1	; 0x01
    223c:	2a c0       	rjmp	.+84     	;  0x2292
    223e:	89 81       	ldd	r24, Y+1	; 0x01
    2240:	88 2f       	mov	r24, r24
    2242:	90 e0       	ldi	r25, 0x00	; 0
    2244:	88 0f       	add	r24, r24
    2246:	99 1f       	adc	r25, r25
    2248:	88 0f       	add	r24, r24
    224a:	99 1f       	adc	r25, r25
    224c:	2a 81       	ldd	r18, Y+2	; 0x02
    224e:	3b 81       	ldd	r19, Y+3	; 0x03
    2250:	89 01       	movw	r16, r18
    2252:	08 0f       	add	r16, r24
    2254:	19 1f       	adc	r17, r25
    2256:	89 81       	ldd	r24, Y+1	; 0x01
    2258:	88 2f       	mov	r24, r24
    225a:	90 e0       	ldi	r25, 0x00	; 0
    225c:	2c 81       	ldd	r18, Y+4	; 0x04
    225e:	3d 81       	ldd	r19, Y+5	; 0x05
    2260:	88 0f       	add	r24, r24
    2262:	99 1f       	adc	r25, r25
    2264:	88 0f       	add	r24, r24
    2266:	99 1f       	adc	r25, r25
    2268:	82 0f       	add	r24, r18
    226a:	93 1f       	adc	r25, r19
    226c:	fc 01       	movw	r30, r24
    226e:	80 81       	ld	r24, Z
    2270:	91 81       	ldd	r25, Z+1	; 0x01
    2272:	a2 81       	ldd	r26, Z+2	; 0x02
    2274:	b3 81       	ldd	r27, Z+3	; 0x03
    2276:	bc 01       	movw	r22, r24
    2278:	cd 01       	movw	r24, r26
    227a:	0e 94 02 0b 	call	0x1604	;  0x1604
    227e:	dc 01       	movw	r26, r24
    2280:	cb 01       	movw	r24, r22
    2282:	f8 01       	movw	r30, r16
    2284:	80 83       	st	Z, r24
    2286:	91 83       	std	Z+1, r25	; 0x01
    2288:	a2 83       	std	Z+2, r26	; 0x02
    228a:	b3 83       	std	Z+3, r27	; 0x03
    228c:	89 81       	ldd	r24, Y+1	; 0x01
    228e:	8f 5f       	subi	r24, 0xFF	; 255
    2290:	89 83       	std	Y+1, r24	; 0x01
    2292:	89 81       	ldd	r24, Y+1	; 0x01
    2294:	88 30       	cpi	r24, 0x08	; 8
    2296:	98 f2       	brcs	.-90     	;  0x223e
    2298:	25 96       	adiw	r28, 0x05	; 5
    229a:	cd bf       	out	0x3d, r28	; 61
    229c:	de bf       	out	0x3e, r29	; 62
    229e:	df 91       	pop	r29
    22a0:	cf 91       	pop	r28
    22a2:	1f 91       	pop	r17
    22a4:	0f 91       	pop	r16
    22a6:	08 95       	ret
	
	
    22a8:	cf 93       	push	r28
    22aa:	df 93       	push	r29
    22ac:	cd b7       	in	r28, 0x3d	; 61
    22ae:	de b7       	in	r29, 0x3e	; 62
    22b0:	0e 94 c6 1d 	call	0x3b8c	;  0x3b8c
    22b4:	dc 01       	movw	r26, r24
    22b6:	cb 01       	movw	r24, r22
    22b8:	bc 01       	movw	r22, r24
    22ba:	cd 01       	movw	r24, r26
    22bc:	df 91       	pop	r29
    22be:	cf 91       	pop	r28
    22c0:	08 95       	ret
    22c2:	0f 93       	push	r16
    22c4:	1f 93       	push	r17
    22c6:	cf 93       	push	r28
    22c8:	df 93       	push	r29
    22ca:	00 d0       	rcall	.+0      	;  0x22cc
    22cc:	cd b7       	in	r28, 0x3d	; 61
    22ce:	de b7       	in	r29, 0x3e	; 62
    22d0:	80 e0       	ldi	r24, 0x00	; 0
    22d2:	9f e0       	ldi	r25, 0x0F	; 15
    22d4:	0e 94 f9 2a 	call	0x55f2	;  0x55f2
    22d8:	88 2f       	mov	r24, r24
    22da:	90 e0       	ldi	r25, 0x00	; 0
    22dc:	18 2f       	mov	r17, r24
    22de:	00 27       	eor	r16, r16
    22e0:	8f e0       	ldi	r24, 0x0F	; 15
    22e2:	9f e0       	ldi	r25, 0x0F	; 15
    22e4:	0e 94 f9 2a 	call	0x55f2	;  0x55f2
    22e8:	88 2f       	mov	r24, r24
    22ea:	90 e0       	ldi	r25, 0x00	; 0
    22ec:	80 27       	eor	r24, r16
    22ee:	91 27       	eor	r25, r17
    22f0:	89 83       	std	Y+1, r24	; 0x01
    22f2:	9a 83       	std	Y+2, r25	; 0x02
    22f4:	80 ee       	ldi	r24, 0xE0	; 224
    22f6:	9f e0       	ldi	r25, 0x0F	; 15
    22f8:	0e 94 f9 2a 	call	0x55f2	;  0x55f2
    22fc:	88 2f       	mov	r24, r24
    22fe:	90 e0       	ldi	r25, 0x00	; 0
    2300:	29 81       	ldd	r18, Y+1	; 0x01
    2302:	3a 81       	ldd	r19, Y+2	; 0x02
    2304:	82 27       	eor	r24, r18
    2306:	93 27       	eor	r25, r19
    2308:	89 83       	std	Y+1, r24	; 0x01
    230a:	9a 83       	std	Y+2, r25	; 0x02
    230c:	8f ef       	ldi	r24, 0xFF	; 255
    230e:	9f e0       	ldi	r25, 0x0F	; 15
    2310:	0e 94 f9 2a 	call	0x55f2	;  0x55f2
    2314:	8b 83       	std	Y+3, r24	; 0x03
    2316:	8b 81       	ldd	r24, Y+3	; 0x03
    2318:	88 2f       	mov	r24, r24
    231a:	90 e0       	ldi	r25, 0x00	; 0
    231c:	9c 01       	movw	r18, r24
    231e:	32 2f       	mov	r19, r18
    2320:	22 27       	eor	r18, r18
    2322:	32 95       	swap	r19
    2324:	30 7f       	andi	r19, 0xF0	; 240
    2326:	8b 81       	ldd	r24, Y+3	; 0x03
    2328:	82 95       	swap	r24
    232a:	8f 70       	andi	r24, 0x0F	; 15
    232c:	88 2f       	mov	r24, r24
    232e:	90 e0       	ldi	r25, 0x00	; 0
    2330:	82 27       	eor	r24, r18
    2332:	93 27       	eor	r25, r19
    2334:	9c 01       	movw	r18, r24
    2336:	89 81       	ldd	r24, Y+1	; 0x01
    2338:	9a 81       	ldd	r25, Y+2	; 0x02
    233a:	82 27       	eor	r24, r18
    233c:	93 27       	eor	r25, r19
    233e:	89 83       	std	Y+1, r24	; 0x01
    2340:	9a 83       	std	Y+2, r25	; 0x02
    2342:	89 81       	ldd	r24, Y+1	; 0x01
    2344:	9a 81       	ldd	r25, Y+2	; 0x02
    2346:	23 96       	adiw	r28, 0x03	; 3
    2348:	cd bf       	out	0x3d, r28	; 61
    234a:	de bf       	out	0x3e, r29	; 62
    234c:	df 91       	pop	r29
    234e:	cf 91       	pop	r28
    2350:	1f 91       	pop	r17
    2352:	0f 91       	pop	r16
    2354:	08 95       	ret
    2356:	cf 93       	push	r28
    2358:	df 93       	push	r29
    235a:	00 d0       	rcall	.+0      	;  0x235c
    235c:	1f 92       	push	r1
    235e:	cd b7       	in	r28, 0x3d	; 61
    2360:	de b7       	in	r29, 0x3e	; 62
    2362:	89 83       	std	Y+1, r24	; 0x01
    2364:	6a 83       	std	Y+2, r22	; 0x02
    2366:	4b 83       	std	Y+3, r20	; 0x03
    2368:	2c 83       	std	Y+4, r18	; 0x04
    236a:	69 81       	ldd	r22, Y+1	; 0x01
    236c:	80 e0       	ldi	r24, 0x00	; 0
    236e:	9f e0       	ldi	r25, 0x0F	; 15
    2370:	0e 94 09 2b 	call	0x5612	;  0x5612
    2374:	6a 81       	ldd	r22, Y+2	; 0x02
    2376:	8f e0       	ldi	r24, 0x0F	; 15
    2378:	9f e0       	ldi	r25, 0x0F	; 15
    237a:	0e 94 09 2b 	call	0x5612	;  0x5612
    237e:	6b 81       	ldd	r22, Y+3	; 0x03
    2380:	80 ee       	ldi	r24, 0xE0	; 224
    2382:	9f e0       	ldi	r25, 0x0F	; 15
    2384:	0e 94 09 2b 	call	0x5612	;  0x5612
    2388:	6c 81       	ldd	r22, Y+4	; 0x04
    238a:	8f ef       	ldi	r24, 0xFF	; 255
    238c:	9f e0       	ldi	r25, 0x0F	; 15
    238e:	0e 94 09 2b 	call	0x5612	;  0x5612
    2392:	24 96       	adiw	r28, 0x04	; 4
    2394:	cd bf       	out	0x3d, r28	; 61
    2396:	de bf       	out	0x3e, r29	; 62
    2398:	df 91       	pop	r29
    239a:	cf 91       	pop	r28
    239c:	08 95       	ret
    239e:	cf 93       	push	r28
    23a0:	df 93       	push	r29
    23a2:	cd b7       	in	r28, 0x3d	; 61
    23a4:	de b7       	in	r29, 0x3e	; 62
    23a6:	27 97       	sbiw	r28, 0x07	; 7
    23a8:	cd bf       	out	0x3d, r28	; 61
    23aa:	de bf       	out	0x3e, r29	; 62
    23ac:	80 91 d9 21 	lds	r24, 0x21D9
    23b0:	90 91 da 21 	lds	r25, 0x21DA
    23b4:	a0 91 db 21 	lds	r26, 0x21DB
    23b8:	b0 91 dc 21 	lds	r27, 0x21DC
    23bc:	01 96       	adiw	r24, 0x01	; 1
    23be:	a1 1d       	adc	r26, r1
    23c0:	b1 1d       	adc	r27, r1
    23c2:	80 93 d9 21 	sts	0x21D9, r24
    23c6:	90 93 da 21 	sts	0x21DA, r25
    23ca:	a0 93 db 21 	sts	0x21DB, r26
    23ce:	b0 93 dc 21 	sts	0x21DC, r27
    23d2:	19 82       	std	Y+1, r1	; 0x01
    23d4:	1a 82       	std	Y+2, r1	; 0x02
    23d6:	1d 82       	std	Y+5, r1	; 0x05
    23d8:	35 c0       	rjmp	.+106    	;  0x2444
    23da:	0e 94 54 11 	call	0x22a8	;  0x22a8
    23de:	dc 01       	movw	r26, r24
    23e0:	cb 01       	movw	r24, r22
    23e2:	81 70       	andi	r24, 0x01	; 1
    23e4:	99 27       	eor	r25, r25
    23e6:	8b 83       	std	Y+3, r24	; 0x03
    23e8:	9c 83       	std	Y+4, r25	; 0x04
    23ea:	8d 81       	ldd	r24, Y+5	; 0x05
    23ec:	28 2f       	mov	r18, r24
    23ee:	88 0f       	add	r24, r24
    23f0:	33 0b       	sbc	r19, r19
    23f2:	8b 81       	ldd	r24, Y+3	; 0x03
    23f4:	9c 81       	ldd	r25, Y+4	; 0x04
    23f6:	02 c0       	rjmp	.+4      	;  0x23fc
    23f8:	88 0f       	add	r24, r24
    23fa:	99 1f       	adc	r25, r25
    23fc:	2a 95       	dec	r18
    23fe:	e2 f7       	brpl	.-8      	;  0x23f8
    2400:	29 81       	ldd	r18, Y+1	; 0x01
    2402:	3a 81       	ldd	r19, Y+2	; 0x02
    2404:	82 2b       	or	r24, r18
    2406:	93 2b       	or	r25, r19
    2408:	89 83       	std	Y+1, r24	; 0x01
    240a:	9a 83       	std	Y+2, r25	; 0x02
    240c:	8b 81       	ldd	r24, Y+3	; 0x03
    240e:	9c 81       	ldd	r25, Y+4	; 0x04
    2410:	9c 01       	movw	r18, r24
    2412:	40 e0       	ldi	r20, 0x00	; 0
    2414:	50 e0       	ldi	r21, 0x00	; 0
    2416:	80 91 dd 21 	lds	r24, 0x21DD
    241a:	90 91 de 21 	lds	r25, 0x21DE
    241e:	a0 91 df 21 	lds	r26, 0x21DF
    2422:	b0 91 e0 21 	lds	r27, 0x21E0
    2426:	82 0f       	add	r24, r18
    2428:	93 1f       	adc	r25, r19
    242a:	a4 1f       	adc	r26, r20
    242c:	b5 1f       	adc	r27, r21
    242e:	80 93 dd 21 	sts	0x21DD, r24
    2432:	90 93 de 21 	sts	0x21DE, r25
    2436:	a0 93 df 21 	sts	0x21DF, r26
    243a:	b0 93 e0 21 	sts	0x21E0, r27
    243e:	8d 81       	ldd	r24, Y+5	; 0x05
    2440:	8f 5f       	subi	r24, 0xFF	; 255
    2442:	8d 83       	std	Y+5, r24	; 0x05
    2444:	8d 81       	ldd	r24, Y+5	; 0x05
    2446:	80 31       	cpi	r24, 0x10	; 16
    2448:	44 f2       	brlt	.-112    	;  0x23da
    244a:	8d 81       	ldd	r24, Y+5	; 0x05
    244c:	80 31       	cpi	r24, 0x10	; 16
    244e:	11 f0       	breq	.+4      	;  0x2454
    2450:	0e 94 c8 27 	call	0x4f90	;  0x4f90
    2454:	80 91 d9 21 	lds	r24, 0x21D9
    2458:	90 91 da 21 	lds	r25, 0x21DA
    245c:	a0 91 db 21 	lds	r26, 0x21DB
    2460:	b0 91 dc 21 	lds	r27, 0x21DC
    2464:	0b 97       	sbiw	r24, 0x0b	; 11
    2466:	a1 05       	cpc	r26, r1
    2468:	b1 05       	cpc	r27, r1
    246a:	08 f4       	brcc	.+2      	;  0x246e
    246c:	52 c0       	rjmp	.+164    	;  0x2512
    246e:	80 91 d9 21 	lds	r24, 0x21D9
    2472:	90 91 da 21 	lds	r25, 0x21DA
    2476:	a0 91 db 21 	lds	r26, 0x21DB
    247a:	b0 91 dc 21 	lds	r27, 0x21DC
    247e:	9c 01       	movw	r18, r24
    2480:	ad 01       	movw	r20, r26
    2482:	22 0f       	add	r18, r18
    2484:	33 1f       	adc	r19, r19
    2486:	44 1f       	adc	r20, r20
    2488:	55 1f       	adc	r21, r21
    248a:	22 0f       	add	r18, r18
    248c:	33 1f       	adc	r19, r19
    248e:	44 1f       	adc	r20, r20
    2490:	55 1f       	adc	r21, r21
    2492:	80 91 dd 21 	lds	r24, 0x21DD
    2496:	90 91 de 21 	lds	r25, 0x21DE
    249a:	a0 91 df 21 	lds	r26, 0x21DF
    249e:	b0 91 e0 21 	lds	r27, 0x21E0
    24a2:	82 17       	cp	r24, r18
    24a4:	93 07       	cpc	r25, r19
    24a6:	a4 07       	cpc	r26, r20
    24a8:	b5 07       	cpc	r27, r21
    24aa:	48 f1       	brcs	.+82     	;  0x24fe
    24ac:	20 91 d9 21 	lds	r18, 0x21D9
    24b0:	30 91 da 21 	lds	r19, 0x21DA
    24b4:	40 91 db 21 	lds	r20, 0x21DB
    24b8:	50 91 dc 21 	lds	r21, 0x21DC
    24bc:	da 01       	movw	r26, r20
    24be:	c9 01       	movw	r24, r18
    24c0:	88 0f       	add	r24, r24
    24c2:	99 1f       	adc	r25, r25
    24c4:	aa 1f       	adc	r26, r26
    24c6:	bb 1f       	adc	r27, r27
    24c8:	82 0f       	add	r24, r18
    24ca:	93 1f       	adc	r25, r19
    24cc:	a4 1f       	adc	r26, r20
    24ce:	b5 1f       	adc	r27, r21
    24d0:	88 0f       	add	r24, r24
    24d2:	99 1f       	adc	r25, r25
    24d4:	aa 1f       	adc	r26, r26
    24d6:	bb 1f       	adc	r27, r27
    24d8:	88 0f       	add	r24, r24
    24da:	99 1f       	adc	r25, r25
    24dc:	aa 1f       	adc	r26, r26
    24de:	bb 1f       	adc	r27, r27
    24e0:	9c 01       	movw	r18, r24
    24e2:	ad 01       	movw	r20, r26
    24e4:	80 91 dd 21 	lds	r24, 0x21DD
    24e8:	90 91 de 21 	lds	r25, 0x21DE
    24ec:	a0 91 df 21 	lds	r26, 0x21DF
    24f0:	b0 91 e0 21 	lds	r27, 0x21E0
    24f4:	28 17       	cp	r18, r24
    24f6:	39 07       	cpc	r19, r25
    24f8:	4a 07       	cpc	r20, r26
    24fa:	5b 07       	cpc	r21, r27
    24fc:	50 f4       	brcc	.+20     	;  0x2512
    24fe:	80 91 0f 20 	lds	r24, 0x200F
    2502:	90 91 10 20 	lds	r25, 0x2010
    2506:	64 e5       	ldi	r22, 0x54	; 84
    2508:	71 e2       	ldi	r23, 0x21	; 33
    250a:	0e 94 4b 18 	call	0x3096	;  0x3096
    250e:	0e 94 c8 27 	call	0x4f90	;  0x4f90
    2512:	80 91 d9 21 	lds	r24, 0x21D9
    2516:	90 91 da 21 	lds	r25, 0x21DA
    251a:	a0 91 db 21 	lds	r26, 0x21DB
    251e:	b0 91 dc 21 	lds	r27, 0x21DC
    2522:	85 36       	cpi	r24, 0x65	; 101
    2524:	91 05       	cpc	r25, r1
    2526:	a1 05       	cpc	r26, r1
    2528:	b1 05       	cpc	r27, r1
    252a:	80 f0       	brcs	.+32     	;  0x254c
    252c:	10 92 d9 21 	sts	0x21D9, r1
    2530:	10 92 da 21 	sts	0x21DA, r1
    2534:	10 92 db 21 	sts	0x21DB, r1
    2538:	10 92 dc 21 	sts	0x21DC, r1
    253c:	10 92 dd 21 	sts	0x21DD, r1
    2540:	10 92 de 21 	sts	0x21DE, r1
    2544:	10 92 df 21 	sts	0x21DF, r1
    2548:	10 92 e0 21 	sts	0x21E0, r1
    254c:	80 91 e1 21 	lds	r24, 0x21E1
    2550:	88 2f       	mov	r24, r24
    2552:	90 e0       	ldi	r25, 0x00	; 0
    2554:	20 91 e1 21 	lds	r18, 0x21E1
    2558:	22 2f       	mov	r18, r18
    255a:	30 e0       	ldi	r19, 0x00	; 0
    255c:	22 0f       	add	r18, r18
    255e:	33 1f       	adc	r19, r19
    2560:	2b 56       	subi	r18, 0x6B	; 107
    2562:	3d 4d       	sbci	r19, 0xDD	; 221
    2564:	f9 01       	movw	r30, r18
    2566:	40 81       	ld	r20, Z
    2568:	51 81       	ldd	r21, Z+1	; 0x01
    256a:	29 81       	ldd	r18, Y+1	; 0x01
    256c:	3a 81       	ldd	r19, Y+2	; 0x02
    256e:	24 27       	eor	r18, r20
    2570:	35 27       	eor	r19, r21
    2572:	88 0f       	add	r24, r24
    2574:	99 1f       	adc	r25, r25
    2576:	8b 56       	subi	r24, 0x6B	; 107
    2578:	9d 4d       	sbci	r25, 0xDD	; 221
    257a:	fc 01       	movw	r30, r24
    257c:	20 83       	st	Z, r18
    257e:	31 83       	std	Z+1, r19	; 0x01
    2580:	80 91 e1 21 	lds	r24, 0x21E1
    2584:	88 2f       	mov	r24, r24
    2586:	90 e0       	ldi	r25, 0x00	; 0
    2588:	01 96       	adiw	r24, 0x01	; 1
    258a:	21 e1       	ldi	r18, 0x11	; 17
    258c:	30 e0       	ldi	r19, 0x00	; 0
    258e:	b9 01       	movw	r22, r18
    2590:	0e 94 d7 24 	call	0x49ae	;  0x49ae
    2594:	80 93 e1 21 	sts	0x21E1, r24
    2598:	80 91 e1 21 	lds	r24, 0x21E1
    259c:	88 2f       	mov	r24, r24
    259e:	90 e0       	ldi	r25, 0x00	; 0
    25a0:	88 0f       	add	r24, r24
    25a2:	99 1f       	adc	r25, r25
    25a4:	8b 56       	subi	r24, 0x6B	; 107
    25a6:	9d 4d       	sbci	r25, 0xDD	; 221
    25a8:	fc 01       	movw	r30, r24
    25aa:	80 81       	ld	r24, Z
    25ac:	91 81       	ldd	r25, Z+1	; 0x01
    25ae:	27 96       	adiw	r28, 0x07	; 7
    25b0:	cd bf       	out	0x3d, r28	; 61
    25b2:	de bf       	out	0x3e, r29	; 62
    25b4:	df 91       	pop	r29
    25b6:	cf 91       	pop	r28
    25b8:	08 95       	ret
    25ba:	cf 93       	push	r28
    25bc:	df 93       	push	r29
    25be:	1f 92       	push	r1
    25c0:	1f 92       	push	r1
    25c2:	cd b7       	in	r28, 0x3d	; 61
    25c4:	de b7       	in	r29, 0x3e	; 62
    25c6:	89 83       	std	Y+1, r24	; 0x01
    25c8:	9a 83       	std	Y+2, r25	; 0x02
    25ca:	89 81       	ldd	r24, Y+1	; 0x01
    25cc:	9a 81       	ldd	r25, Y+2	; 0x02
    25ce:	80 93 07 20 	sts	0x2007, r24
    25d2:	90 93 08 20 	sts	0x2008, r25
    25d6:	0f 90       	pop	r0
    25d8:	0f 90       	pop	r0
    25da:	df 91       	pop	r29
    25dc:	cf 91       	pop	r28
    25de:	08 95       	ret
    25e0:	cf 93       	push	r28
    25e2:	df 93       	push	r29
    25e4:	00 d0       	rcall	.+0      	;  0x25e6
    25e6:	00 d0       	rcall	.+0      	;  0x25e8
    25e8:	cd b7       	in	r28, 0x3d	; 61
    25ea:	de b7       	in	r29, 0x3e	; 62
    25ec:	8d 83       	std	Y+5, r24	; 0x05
    25ee:	9e 83       	std	Y+6, r25	; 0x06
    25f0:	19 82       	std	Y+1, r1	; 0x01
    25f2:	1a 82       	std	Y+2, r1	; 0x02
    25f4:	80 91 07 20 	lds	r24, 0x2007
    25f8:	90 91 08 20 	lds	r25, 0x2008
    25fc:	89 2b       	or	r24, r25
    25fe:	11 f4       	brne	.+4      	;  0x2604
    2600:	0e 94 c8 27 	call	0x4f90	;  0x4f90
    2604:	80 91 07 20 	lds	r24, 0x2007
    2608:	90 91 08 20 	lds	r25, 0x2008
    260c:	9c 01       	movw	r18, r24
    260e:	36 95       	lsr	r19
    2610:	27 95       	ror	r18
    2612:	36 95       	lsr	r19
    2614:	27 95       	ror	r18
    2616:	80 91 07 20 	lds	r24, 0x2007
    261a:	90 91 08 20 	lds	r25, 0x2008
    261e:	28 27       	eor	r18, r24
    2620:	39 27       	eor	r19, r25
    2622:	80 91 07 20 	lds	r24, 0x2007
    2626:	90 91 08 20 	lds	r25, 0x2008
    262a:	96 95       	lsr	r25
    262c:	87 95       	ror	r24
    262e:	96 95       	lsr	r25
    2630:	87 95       	ror	r24
    2632:	96 95       	lsr	r25
    2634:	87 95       	ror	r24
    2636:	28 27       	eor	r18, r24
    2638:	39 27       	eor	r19, r25
    263a:	80 91 07 20 	lds	r24, 0x2007
    263e:	90 91 08 20 	lds	r25, 0x2008
    2642:	96 95       	lsr	r25
    2644:	87 95       	ror	r24
    2646:	92 95       	swap	r25
    2648:	82 95       	swap	r24
    264a:	8f 70       	andi	r24, 0x0F	; 15
    264c:	89 27       	eor	r24, r25
    264e:	9f 70       	andi	r25, 0x0F	; 15
    2650:	89 27       	eor	r24, r25
    2652:	82 27       	eor	r24, r18
    2654:	93 27       	eor	r25, r19
    2656:	81 70       	andi	r24, 0x01	; 1
    2658:	99 27       	eor	r25, r25
    265a:	8b 83       	std	Y+3, r24	; 0x03
    265c:	9c 83       	std	Y+4, r25	; 0x04
    265e:	80 91 07 20 	lds	r24, 0x2007
    2662:	90 91 08 20 	lds	r25, 0x2008
    2666:	9c 01       	movw	r18, r24
    2668:	36 95       	lsr	r19
    266a:	27 95       	ror	r18
    266c:	8b 81       	ldd	r24, Y+3	; 0x03
    266e:	9c 81       	ldd	r25, Y+4	; 0x04
    2670:	99 27       	eor	r25, r25
    2672:	86 95       	lsr	r24
    2674:	97 95       	ror	r25
    2676:	88 27       	eor	r24, r24
    2678:	82 2b       	or	r24, r18
    267a:	93 2b       	or	r25, r19
    267c:	80 93 07 20 	sts	0x2007, r24
    2680:	90 93 08 20 	sts	0x2008, r25
    2684:	89 81       	ldd	r24, Y+1	; 0x01
    2686:	9a 81       	ldd	r25, Y+2	; 0x02
    2688:	01 96       	adiw	r24, 0x01	; 1
    268a:	89 83       	std	Y+1, r24	; 0x01
    268c:	9a 83       	std	Y+2, r25	; 0x02
    268e:	29 81       	ldd	r18, Y+1	; 0x01
    2690:	3a 81       	ldd	r19, Y+2	; 0x02
    2692:	8d 81       	ldd	r24, Y+5	; 0x05
    2694:	9e 81       	ldd	r25, Y+6	; 0x06
    2696:	28 17       	cp	r18, r24
    2698:	39 07       	cpc	r19, r25
    269a:	08 f4       	brcc	.+2      	;  0x269e
    269c:	b3 cf       	rjmp	.-154    	;  0x2604
    269e:	80 91 07 20 	lds	r24, 0x2007
    26a2:	90 91 08 20 	lds	r25, 0x2008
    26a6:	26 96       	adiw	r28, 0x06	; 6
    26a8:	cd bf       	out	0x3d, r28	; 61
    26aa:	de bf       	out	0x3e, r29	; 62
    26ac:	df 91       	pop	r29
    26ae:	cf 91       	pop	r28
    26b0:	08 95       	ret
    26b2:	0f 93       	push	r16
    26b4:	1f 93       	push	r17
    26b6:	cf 93       	push	r28
    26b8:	df 93       	push	r29
    26ba:	cd b7       	in	r28, 0x3d	; 61
    26bc:	de b7       	in	r29, 0x3e	; 62
    26be:	0e 94 cf 11 	call	0x239e	;  0x239e
    26c2:	8c 01       	movw	r16, r24
    26c4:	81 e0       	ldi	r24, 0x01	; 1
    26c6:	90 e0       	ldi	r25, 0x00	; 0
    26c8:	0e 94 f0 12 	call	0x25e0	;  0x25e0
    26cc:	80 27       	eor	r24, r16
    26ce:	91 27       	eor	r25, r17
    26d0:	df 91       	pop	r29
    26d2:	cf 91       	pop	r28
    26d4:	1f 91       	pop	r17
    26d6:	0f 91       	pop	r16
    26d8:	08 95       	ret
    26da:	cf 93       	push	r28
    26dc:	df 93       	push	r29
    26de:	00 d0       	rcall	.+0      	;  0x26e0
    26e0:	00 d0       	rcall	.+0      	;  0x26e2
    26e2:	cd b7       	in	r28, 0x3d	; 61
    26e4:	de b7       	in	r29, 0x3e	; 62
    26e6:	8d 83       	std	Y+5, r24	; 0x05
    26e8:	9e 83       	std	Y+6, r25	; 0x06
    26ea:	8d 81       	ldd	r24, Y+5	; 0x05
    26ec:	9e 81       	ldd	r25, Y+6	; 0x06
    26ee:	8b 83       	std	Y+3, r24	; 0x03
    26f0:	9c 83       	std	Y+4, r25	; 0x04
    26f2:	19 82       	std	Y+1, r1	; 0x01
    26f4:	1a 82       	std	Y+2, r1	; 0x02
    26f6:	36 c0       	rjmp	.+108    	;  0x2764
    26f8:	81 e0       	ldi	r24, 0x01	; 1
    26fa:	90 e0       	ldi	r25, 0x00	; 0
    26fc:	0e 94 f0 12 	call	0x25e0	;  0x25e0
    2700:	fc 01       	movw	r30, r24
    2702:	49 81       	ldd	r20, Y+1	; 0x01
    2704:	5a 81       	ldd	r21, Y+2	; 0x02
    2706:	9a 01       	movw	r18, r20
    2708:	a1 ef       	ldi	r26, 0xF1	; 241
    270a:	b0 ef       	ldi	r27, 0xF0	; 240
    270c:	0e 94 16 25 	call	0x4a2c	;  0x4a2c
    2710:	92 95       	swap	r25
    2712:	82 95       	swap	r24
    2714:	8f 70       	andi	r24, 0x0F	; 15
    2716:	89 27       	eor	r24, r25
    2718:	9f 70       	andi	r25, 0x0F	; 15
    271a:	89 27       	eor	r24, r25
    271c:	61 e1       	ldi	r22, 0x11	; 17
    271e:	68 9f       	mul	r22, r24
    2720:	90 01       	movw	r18, r0
    2722:	69 9f       	mul	r22, r25
    2724:	30 0d       	add	r19, r0
    2726:	11 24       	eor	r1, r1
    2728:	ca 01       	movw	r24, r20
    272a:	82 1b       	sub	r24, r18
    272c:	93 0b       	sbc	r25, r19
    272e:	9c 01       	movw	r18, r24
    2730:	22 0f       	add	r18, r18
    2732:	33 1f       	adc	r19, r19
    2734:	2b 56       	subi	r18, 0x6B	; 107
    2736:	3d 4d       	sbci	r19, 0xDD	; 221
    2738:	d9 01       	movw	r26, r18
    273a:	2d 91       	ld	r18, X+
    273c:	3c 91       	ld	r19, X
    273e:	2e 27       	eor	r18, r30
    2740:	3f 27       	eor	r19, r31
    2742:	88 0f       	add	r24, r24
    2744:	99 1f       	adc	r25, r25
    2746:	8b 56       	subi	r24, 0x6B	; 107
    2748:	9d 4d       	sbci	r25, 0xDD	; 221
    274a:	fc 01       	movw	r30, r24
    274c:	20 83       	st	Z, r18
    274e:	31 83       	std	Z+1, r19	; 0x01
    2750:	8b 81       	ldd	r24, Y+3	; 0x03
    2752:	9c 81       	ldd	r25, Y+4	; 0x04
    2754:	01 97       	sbiw	r24, 0x01	; 1
    2756:	8b 83       	std	Y+3, r24	; 0x03
    2758:	9c 83       	std	Y+4, r25	; 0x04
    275a:	89 81       	ldd	r24, Y+1	; 0x01
    275c:	9a 81       	ldd	r25, Y+2	; 0x02
    275e:	01 96       	adiw	r24, 0x01	; 1
    2760:	89 83       	std	Y+1, r24	; 0x01
    2762:	9a 83       	std	Y+2, r25	; 0x02
    2764:	29 81       	ldd	r18, Y+1	; 0x01
    2766:	3a 81       	ldd	r19, Y+2	; 0x02
    2768:	8d 81       	ldd	r24, Y+5	; 0x05
    276a:	9e 81       	ldd	r25, Y+6	; 0x06
    276c:	28 17       	cp	r18, r24
    276e:	39 07       	cpc	r19, r25
    2770:	28 f4       	brcc	.+10     	;  0x277c
    2772:	8b 81       	ldd	r24, Y+3	; 0x03
    2774:	9c 81       	ldd	r25, Y+4	; 0x04
    2776:	89 2b       	or	r24, r25
    2778:	09 f0       	breq	.+2      	;  0x277c
    277a:	be cf       	rjmp	.-132    	;  0x26f8
    277c:	8b 81       	ldd	r24, Y+3	; 0x03
    277e:	9c 81       	ldd	r25, Y+4	; 0x04
    2780:	89 2b       	or	r24, r25
    2782:	39 f4       	brne	.+14     	;  0x2792
    2784:	29 81       	ldd	r18, Y+1	; 0x01
    2786:	3a 81       	ldd	r19, Y+2	; 0x02
    2788:	8d 81       	ldd	r24, Y+5	; 0x05
    278a:	9e 81       	ldd	r25, Y+6	; 0x06
    278c:	28 17       	cp	r18, r24
    278e:	39 07       	cpc	r19, r25
    2790:	11 f0       	breq	.+4      	;  0x2796
    2792:	0e 94 c8 27 	call	0x4f90	;  0x4f90
    2796:	07 c0       	rjmp	.+14     	;  0x27a6
    2798:	0e 94 cf 11 	call	0x239e	;  0x239e
    279c:	8d 81       	ldd	r24, Y+5	; 0x05
    279e:	9e 81       	ldd	r25, Y+6	; 0x06
    27a0:	01 97       	sbiw	r24, 0x01	; 1
    27a2:	8d 83       	std	Y+5, r24	; 0x05
    27a4:	9e 83       	std	Y+6, r25	; 0x06
    27a6:	8d 81       	ldd	r24, Y+5	; 0x05
    27a8:	9e 81       	ldd	r25, Y+6	; 0x06
    27aa:	89 2b       	or	r24, r25
    27ac:	a9 f7       	brne	.-22     	;  0x2798
    27ae:	8d 81       	ldd	r24, Y+5	; 0x05
    27b0:	9e 81       	ldd	r25, Y+6	; 0x06
    27b2:	89 2b       	or	r24, r25
    27b4:	11 f0       	breq	.+4      	;  0x27ba
    27b6:	0e 94 c8 27 	call	0x4f90	;  0x4f90
    27ba:	26 96       	adiw	r28, 0x06	; 6
    27bc:	cd bf       	out	0x3d, r28	; 61
    27be:	de bf       	out	0x3e, r29	; 62
    27c0:	df 91       	pop	r29
    27c2:	cf 91       	pop	r28
    27c4:	08 95       	ret
    27c6:	ff 92       	push	r15
    27c8:	0f 93       	push	r16
    27ca:	1f 93       	push	r17
    27cc:	cf 93       	push	r28
    27ce:	df 93       	push	r29
    27d0:	cd b7       	in	r28, 0x3d	; 61
    27d2:	de b7       	in	r29, 0x3e	; 62
    27d4:	6c 97       	sbiw	r28, 0x1c	; 28
    27d6:	cd bf       	out	0x3d, r28	; 61
    27d8:	de bf       	out	0x3e, r29	; 62
    27da:	80 91 06 20 	lds	r24, 0x2006
    27de:	88 37       	cpi	r24, 0x78	; 120
    27e0:	41 f4       	brne	.+16     	;  0x27f2
    27e2:	80 91 06 20 	lds	r24, 0x2006
    27e6:	88 37       	cpi	r24, 0x78	; 120
    27e8:	11 f0       	breq	.+4      	;  0x27ee
    27ea:	0e 94 c8 27 	call	0x4f90	;  0x4f90
    27ee:	8a e5       	ldi	r24, 0x5A	; 90
    27f0:	c0 c1       	rjmp	.+896    	;  0x2b72
    27f2:	85 ea       	ldi	r24, 0xA5	; 165
    27f4:	8b 83       	std	Y+3, r24	; 0x03
    27f6:	90 91 e2 21 	lds	r25, 0x21E2
    27fa:	82 e0       	ldi	r24, 0x02	; 2
    27fc:	89 27       	eor	r24, r25
    27fe:	80 93 e2 21 	sts	0x21E2, r24
    2802:	8a e2       	ldi	r24, 0x2A	; 42
    2804:	90 e0       	ldi	r25, 0x00	; 0
    2806:	0e 94 dd 12 	call	0x25ba	;  0x25ba
    280a:	90 91 e2 21 	lds	r25, 0x21E2
    280e:	84 e0       	ldi	r24, 0x04	; 4
    2810:	89 27       	eor	r24, r25
    2812:	80 93 e2 21 	sts	0x21E2, r24
    2816:	81 e1       	ldi	r24, 0x11	; 17
    2818:	90 e0       	ldi	r25, 0x00	; 0
    281a:	0e 94 6d 13 	call	0x26da	;  0x26da
    281e:	90 91 e2 21 	lds	r25, 0x21E2
    2822:	88 e0       	ldi	r24, 0x08	; 8
    2824:	89 27       	eor	r24, r25
    2826:	80 93 e2 21 	sts	0x21E2, r24
    282a:	90 91 e2 21 	lds	r25, 0x21E2
    282e:	80 e1       	ldi	r24, 0x10	; 16
    2830:	89 27       	eor	r24, r25
    2832:	80 93 e2 21 	sts	0x21E2, r24
    2836:	ce 01       	movw	r24, r28
    2838:	41 96       	adiw	r24, 0x11	; 17
    283a:	0e 94 5b 19 	call	0x32b6	;  0x32b6
    283e:	90 91 e2 21 	lds	r25, 0x21E2
    2842:	80 e2       	ldi	r24, 0x20	; 32
    2844:	89 27       	eor	r24, r25
    2846:	80 93 e2 21 	sts	0x21E2, r24
    284a:	0e 94 61 11 	call	0x22c2	;  0x22c2
    284e:	89 83       	std	Y+1, r24	; 0x01
    2850:	9a 83       	std	Y+2, r25	; 0x02
    2852:	90 91 e2 21 	lds	r25, 0x21E2
    2856:	81 e0       	ldi	r24, 0x01	; 1
    2858:	89 27       	eor	r24, r25
    285a:	80 93 e2 21 	sts	0x21E2, r24
    285e:	ce 01       	movw	r24, r28
    2860:	41 96       	adiw	r24, 0x11	; 17
    2862:	8c 83       	std	Y+4, r24	; 0x04
    2864:	9d 83       	std	Y+5, r25	; 0x05
    2866:	8c 81       	ldd	r24, Y+4	; 0x04
    2868:	9d 81       	ldd	r25, Y+5	; 0x05
    286a:	fc 01       	movw	r30, r24
    286c:	20 81       	ld	r18, Z
    286e:	31 81       	ldd	r19, Z+1	; 0x01
    2870:	8c 81       	ldd	r24, Y+4	; 0x04
    2872:	9d 81       	ldd	r25, Y+5	; 0x05
    2874:	02 96       	adiw	r24, 0x02	; 2
    2876:	fc 01       	movw	r30, r24
    2878:	40 81       	ld	r20, Z
    287a:	51 81       	ldd	r21, Z+1	; 0x01
    287c:	8c 81       	ldd	r24, Y+4	; 0x04
    287e:	9d 81       	ldd	r25, Y+5	; 0x05
    2880:	04 96       	adiw	r24, 0x04	; 4
    2882:	fc 01       	movw	r30, r24
    2884:	80 81       	ld	r24, Z
    2886:	91 81       	ldd	r25, Z+1	; 0x01
    2888:	48 27       	eor	r20, r24
    288a:	59 27       	eor	r21, r25
    288c:	8c 81       	ldd	r24, Y+4	; 0x04
    288e:	9d 81       	ldd	r25, Y+5	; 0x05
    2890:	06 96       	adiw	r24, 0x06	; 6
    2892:	fc 01       	movw	r30, r24
    2894:	80 81       	ld	r24, Z
    2896:	91 81       	ldd	r25, Z+1	; 0x01
    2898:	48 27       	eor	r20, r24
    289a:	59 27       	eor	r21, r25
    289c:	8c 81       	ldd	r24, Y+4	; 0x04
    289e:	9d 81       	ldd	r25, Y+5	; 0x05
    28a0:	08 96       	adiw	r24, 0x08	; 8
    28a2:	fc 01       	movw	r30, r24
    28a4:	80 81       	ld	r24, Z
    28a6:	91 81       	ldd	r25, Z+1	; 0x01
    28a8:	48 27       	eor	r20, r24
    28aa:	59 27       	eor	r21, r25
    28ac:	8c 81       	ldd	r24, Y+4	; 0x04
    28ae:	9d 81       	ldd	r25, Y+5	; 0x05
    28b0:	0a 96       	adiw	r24, 0x0a	; 10
    28b2:	fc 01       	movw	r30, r24
    28b4:	80 81       	ld	r24, Z
    28b6:	91 81       	ldd	r25, Z+1	; 0x01
    28b8:	48 27       	eor	r20, r24
    28ba:	59 27       	eor	r21, r25
    28bc:	8c 81       	ldd	r24, Y+4	; 0x04
    28be:	9d 81       	ldd	r25, Y+5	; 0x05
    28c0:	0c 96       	adiw	r24, 0x0c	; 12
    28c2:	fc 01       	movw	r30, r24
    28c4:	80 81       	ld	r24, Z
    28c6:	91 81       	ldd	r25, Z+1	; 0x01
    28c8:	84 27       	eor	r24, r20
    28ca:	95 27       	eor	r25, r21
    28cc:	82 27       	eor	r24, r18
    28ce:	93 27       	eor	r25, r19
    28d0:	9c 01       	movw	r18, r24
    28d2:	f7 eb       	ldi	r31, 0xB7	; 183
    28d4:	2f 27       	eor	r18, r31
    28d6:	fa e7       	ldi	r31, 0x7A	; 122
    28d8:	3f 27       	eor	r19, r31
    28da:	8c 81       	ldd	r24, Y+4	; 0x04
    28dc:	9d 81       	ldd	r25, Y+5	; 0x05
    28de:	fc 01       	movw	r30, r24
    28e0:	20 83       	st	Z, r18
    28e2:	31 83       	std	Z+1, r19	; 0x01
    28e4:	90 91 e2 21 	lds	r25, 0x21E2
    28e8:	80 e4       	ldi	r24, 0x40	; 64
    28ea:	89 27       	eor	r24, r25
    28ec:	80 93 e2 21 	sts	0x21E2, r24
    28f0:	1c 8e       	std	Y+28, r1	; 0x1c
    28f2:	12 c1       	rjmp	.+548    	;  0x2b18
    28f4:	89 81       	ldd	r24, Y+1	; 0x01
    28f6:	9a 81       	ldd	r25, Y+2	; 0x02
    28f8:	8f 71       	andi	r24, 0x1F	; 31
    28fa:	99 27       	eor	r25, r25
    28fc:	0e 94 6d 13 	call	0x26da	;  0x26da
    2900:	0e 94 cf 11 	call	0x239e	;  0x239e
    2904:	8e 83       	std	Y+6, r24	; 0x06
    2906:	9f 83       	std	Y+7, r25	; 0x07
    2908:	8c 81       	ldd	r24, Y+4	; 0x04
    290a:	9d 81       	ldd	r25, Y+5	; 0x05
    290c:	fc 01       	movw	r30, r24
    290e:	20 81       	ld	r18, Z
    2910:	31 81       	ldd	r19, Z+1	; 0x01
    2912:	8e 81       	ldd	r24, Y+6	; 0x06
    2914:	9f 81       	ldd	r25, Y+7	; 0x07
    2916:	28 27       	eor	r18, r24
    2918:	39 27       	eor	r19, r25
    291a:	8c 81       	ldd	r24, Y+4	; 0x04
    291c:	9d 81       	ldd	r25, Y+5	; 0x05
    291e:	fc 01       	movw	r30, r24
    2920:	20 83       	st	Z, r18
    2922:	31 83       	std	Z+1, r19	; 0x01
    2924:	0e 94 cf 11 	call	0x239e	;  0x239e
    2928:	8c 01       	movw	r16, r24
    292a:	8c 81       	ldd	r24, Y+4	; 0x04
    292c:	9d 81       	ldd	r25, Y+5	; 0x05
    292e:	fc 01       	movw	r30, r24
    2930:	40 81       	ld	r20, Z
    2932:	51 81       	ldd	r21, Z+1	; 0x01
    2934:	9a 01       	movw	r18, r20
    2936:	af e2       	ldi	r26, 0x2F	; 47
    2938:	ba eb       	ldi	r27, 0xBA	; 186
    293a:	0e 94 16 25 	call	0x4a2c	;  0x4a2c
    293e:	96 95       	lsr	r25
    2940:	87 95       	ror	r24
    2942:	96 95       	lsr	r25
    2944:	87 95       	ror	r24
    2946:	96 95       	lsr	r25
    2948:	87 95       	ror	r24
    294a:	6b e0       	ldi	r22, 0x0B	; 11
    294c:	68 9f       	mul	r22, r24
    294e:	90 01       	movw	r18, r0
    2950:	69 9f       	mul	r22, r25
    2952:	30 0d       	add	r19, r0
    2954:	11 24       	eor	r1, r1
    2956:	ca 01       	movw	r24, r20
    2958:	82 1b       	sub	r24, r18
    295a:	93 0b       	sbc	r25, r19
    295c:	0e 94 f0 12 	call	0x25e0	;  0x25e0
    2960:	80 27       	eor	r24, r16
    2962:	91 27       	eor	r25, r17
    2964:	88 87       	std	Y+8, r24	; 0x08
    2966:	99 87       	std	Y+9, r25	; 0x09
    2968:	48 85       	ldd	r20, Y+8	; 0x08
    296a:	59 85       	ldd	r21, Y+9	; 0x09
    296c:	9a 01       	movw	r18, r20
    296e:	a1 ef       	ldi	r26, 0xF1	; 241
    2970:	b0 ef       	ldi	r27, 0xF0	; 240
    2972:	0e 94 16 25 	call	0x4a2c	;  0x4a2c
    2976:	92 95       	swap	r25
    2978:	82 95       	swap	r24
    297a:	8f 70       	andi	r24, 0x0F	; 15
    297c:	89 27       	eor	r24, r25
    297e:	9f 70       	andi	r25, 0x0F	; 15
    2980:	89 27       	eor	r24, r25
    2982:	61 e1       	ldi	r22, 0x11	; 17
    2984:	68 9f       	mul	r22, r24
    2986:	90 01       	movw	r18, r0
    2988:	69 9f       	mul	r22, r25
    298a:	30 0d       	add	r19, r0
    298c:	11 24       	eor	r1, r1
    298e:	ca 01       	movw	r24, r20
    2990:	82 1b       	sub	r24, r18
    2992:	93 0b       	sbc	r25, r19
    2994:	88 0f       	add	r24, r24
    2996:	99 1f       	adc	r25, r25
    2998:	8b 56       	subi	r24, 0x6B	; 107
    299a:	9d 4d       	sbci	r25, 0xDD	; 221
    299c:	fc 01       	movw	r30, r24
    299e:	80 81       	ld	r24, Z
    29a0:	91 81       	ldd	r25, Z+1	; 0x01
    29a2:	8a 87       	std	Y+10, r24	; 0x0a
    29a4:	9b 87       	std	Y+11, r25	; 0x0b
    29a6:	0e 94 cf 11 	call	0x239e	;  0x239e
    29aa:	8c 01       	movw	r16, r24
    29ac:	4a 85       	ldd	r20, Y+10	; 0x0a
    29ae:	5b 85       	ldd	r21, Y+11	; 0x0b
    29b0:	9a 01       	movw	r18, r20
    29b2:	a3 e9       	ldi	r26, 0x93	; 147
    29b4:	b4 e2       	ldi	r27, 0x24	; 36
    29b6:	0e 94 16 25 	call	0x4a2c	;  0x4a2c
    29ba:	9a 01       	movw	r18, r20
    29bc:	28 1b       	sub	r18, r24
    29be:	39 0b       	sbc	r19, r25
    29c0:	36 95       	lsr	r19
    29c2:	27 95       	ror	r18
    29c4:	82 0f       	add	r24, r18
    29c6:	93 1f       	adc	r25, r19
    29c8:	9c 01       	movw	r18, r24
    29ca:	36 95       	lsr	r19
    29cc:	27 95       	ror	r18
    29ce:	36 95       	lsr	r19
    29d0:	27 95       	ror	r18
    29d2:	c9 01       	movw	r24, r18
    29d4:	88 0f       	add	r24, r24
    29d6:	99 1f       	adc	r25, r25
    29d8:	88 0f       	add	r24, r24
    29da:	99 1f       	adc	r25, r25
    29dc:	88 0f       	add	r24, r24
    29de:	99 1f       	adc	r25, r25
    29e0:	82 1b       	sub	r24, r18
    29e2:	93 0b       	sbc	r25, r19
    29e4:	9a 01       	movw	r18, r20
    29e6:	28 1b       	sub	r18, r24
    29e8:	39 0b       	sbc	r19, r25
    29ea:	c9 01       	movw	r24, r18
    29ec:	0e 94 f0 12 	call	0x25e0	;  0x25e0
    29f0:	80 27       	eor	r24, r16
    29f2:	91 27       	eor	r25, r17
    29f4:	8c 87       	std	Y+12, r24	; 0x0c
    29f6:	9d 87       	std	Y+13, r25	; 0x0d
    29f8:	4c 85       	ldd	r20, Y+12	; 0x0c
    29fa:	5d 85       	ldd	r21, Y+13	; 0x0d
    29fc:	9a 01       	movw	r18, r20
    29fe:	a1 ef       	ldi	r26, 0xF1	; 241
    2a00:	b0 ef       	ldi	r27, 0xF0	; 240
    2a02:	0e 94 16 25 	call	0x4a2c	;  0x4a2c
    2a06:	92 95       	swap	r25
    2a08:	82 95       	swap	r24
    2a0a:	8f 70       	andi	r24, 0x0F	; 15
    2a0c:	89 27       	eor	r24, r25
    2a0e:	9f 70       	andi	r25, 0x0F	; 15
    2a10:	89 27       	eor	r24, r25
    2a12:	61 e1       	ldi	r22, 0x11	; 17
    2a14:	68 9f       	mul	r22, r24
    2a16:	90 01       	movw	r18, r0
    2a18:	69 9f       	mul	r22, r25
    2a1a:	30 0d       	add	r19, r0
    2a1c:	11 24       	eor	r1, r1
    2a1e:	ca 01       	movw	r24, r20
    2a20:	82 1b       	sub	r24, r18
    2a22:	93 0b       	sbc	r25, r19
    2a24:	80 93 e1 21 	sts	0x21E1, r24
    2a28:	0e 94 cf 11 	call	0x239e	;  0x239e
    2a2c:	8c 01       	movw	r16, r24
    2a2e:	0e 94 cf 11 	call	0x239e	;  0x239e
    2a32:	ac 01       	movw	r20, r24
    2a34:	9a 01       	movw	r18, r20
    2a36:	a5 ec       	ldi	r26, 0xC5	; 197
    2a38:	be e4       	ldi	r27, 0x4E	; 78
    2a3a:	0e 94 16 25 	call	0x4a2c	;  0x4a2c
    2a3e:	96 95       	lsr	r25
    2a40:	87 95       	ror	r24
    2a42:	96 95       	lsr	r25
    2a44:	87 95       	ror	r24
    2a46:	6d e0       	ldi	r22, 0x0D	; 13
    2a48:	68 9f       	mul	r22, r24
    2a4a:	90 01       	movw	r18, r0
    2a4c:	69 9f       	mul	r22, r25
    2a4e:	30 0d       	add	r19, r0
    2a50:	11 24       	eor	r1, r1
    2a52:	ca 01       	movw	r24, r20
    2a54:	82 1b       	sub	r24, r18
    2a56:	93 0b       	sbc	r25, r19
    2a58:	0e 94 f0 12 	call	0x25e0	;  0x25e0
    2a5c:	80 27       	eor	r24, r16
    2a5e:	91 27       	eor	r25, r17
    2a60:	8e 87       	std	Y+14, r24	; 0x0e
    2a62:	9f 87       	std	Y+15, r25	; 0x0f
    2a64:	4e 85       	ldd	r20, Y+14	; 0x0e
    2a66:	5f 85       	ldd	r21, Y+15	; 0x0f
    2a68:	9a 01       	movw	r18, r20
    2a6a:	af e2       	ldi	r26, 0x2F	; 47
    2a6c:	ba eb       	ldi	r27, 0xBA	; 186
    2a6e:	0e 94 16 25 	call	0x4a2c	;  0x4a2c
    2a72:	96 95       	lsr	r25
    2a74:	87 95       	ror	r24
    2a76:	96 95       	lsr	r25
    2a78:	87 95       	ror	r24
    2a7a:	96 95       	lsr	r25
    2a7c:	87 95       	ror	r24
    2a7e:	6b e0       	ldi	r22, 0x0B	; 11
    2a80:	68 9f       	mul	r22, r24
    2a82:	90 01       	movw	r18, r0
    2a84:	69 9f       	mul	r22, r25
    2a86:	30 0d       	add	r19, r0
    2a88:	11 24       	eor	r1, r1
    2a8a:	ca 01       	movw	r24, r20
    2a8c:	82 1b       	sub	r24, r18
    2a8e:	93 0b       	sbc	r25, r19
    2a90:	0e 94 6d 13 	call	0x26da	;  0x26da
    2a94:	0e 94 cf 11 	call	0x239e	;  0x239e
    2a98:	8c 01       	movw	r16, r24
    2a9a:	81 e0       	ldi	r24, 0x01	; 1
    2a9c:	90 e0       	ldi	r25, 0x00	; 0
    2a9e:	0e 94 f0 12 	call	0x25e0	;  0x25e0
    2aa2:	a8 01       	movw	r20, r16
    2aa4:	48 27       	eor	r20, r24
    2aa6:	59 27       	eor	r21, r25
    2aa8:	9a 01       	movw	r18, r20
    2aaa:	a3 e9       	ldi	r26, 0x93	; 147
    2aac:	b1 e2       	ldi	r27, 0x21	; 33
    2aae:	0e 94 16 25 	call	0x4a2c	;  0x4a2c
    2ab2:	96 95       	lsr	r25
    2ab4:	87 95       	ror	r24
    2ab6:	96 95       	lsr	r25
    2ab8:	87 95       	ror	r24
    2aba:	96 95       	lsr	r25
    2abc:	87 95       	ror	r24
    2abe:	6d e3       	ldi	r22, 0x3D	; 61
    2ac0:	68 9f       	mul	r22, r24
    2ac2:	90 01       	movw	r18, r0
    2ac4:	69 9f       	mul	r22, r25
    2ac6:	30 0d       	add	r19, r0
    2ac8:	11 24       	eor	r1, r1
    2aca:	ca 01       	movw	r24, r20
    2acc:	82 1b       	sub	r24, r18
    2ace:	93 0b       	sbc	r25, r19
    2ad0:	29 81       	ldd	r18, Y+1	; 0x01
    2ad2:	3a 81       	ldd	r19, Y+2	; 0x02
    2ad4:	82 27       	eor	r24, r18
    2ad6:	93 27       	eor	r25, r19
    2ad8:	89 83       	std	Y+1, r24	; 0x01
    2ada:	9a 83       	std	Y+2, r25	; 0x02
    2adc:	8c 8d       	ldd	r24, Y+28	; 0x1c
    2ade:	88 23       	and	r24, r24
    2ae0:	c1 f0       	breq	.+48     	;  0x2b12
    2ae2:	0e 94 59 13 	call	0x26b2	;  0x26b2
    2ae6:	9c 01       	movw	r18, r24
    2ae8:	89 81       	ldd	r24, Y+1	; 0x01
    2aea:	9a 81       	ldd	r25, Y+2	; 0x02
    2aec:	82 27       	eor	r24, r18
    2aee:	93 27       	eor	r25, r19
    2af0:	89 83       	std	Y+1, r24	; 0x01
    2af2:	9a 83       	std	Y+2, r25	; 0x02
    2af4:	0e 94 59 13 	call	0x26b2	;  0x26b2
    2af8:	9c 01       	movw	r18, r24
    2afa:	8c 81       	ldd	r24, Y+4	; 0x04
    2afc:	9d 81       	ldd	r25, Y+5	; 0x05
    2afe:	fc 01       	movw	r30, r24
    2b00:	80 81       	ld	r24, Z
    2b02:	91 81       	ldd	r25, Z+1	; 0x01
    2b04:	28 27       	eor	r18, r24
    2b06:	39 27       	eor	r19, r25
    2b08:	8c 81       	ldd	r24, Y+4	; 0x04
    2b0a:	9d 81       	ldd	r25, Y+5	; 0x05
    2b0c:	fc 01       	movw	r30, r24
    2b0e:	20 83       	st	Z, r18
    2b10:	31 83       	std	Z+1, r19	; 0x01
    2b12:	8c 8d       	ldd	r24, Y+28	; 0x1c
    2b14:	8f 5f       	subi	r24, 0xFF	; 255
    2b16:	8c 8f       	std	Y+28, r24	; 0x1c
    2b18:	8c 8d       	ldd	r24, Y+28	; 0x1c
    2b1a:	83 30       	cpi	r24, 0x03	; 3
    2b1c:	08 f4       	brcc	.+2      	;  0x2b20
    2b1e:	ea ce       	rjmp	.-556    	;  0x28f4
    2b20:	8c 8d       	ldd	r24, Y+28	; 0x1c
    2b22:	83 30       	cpi	r24, 0x03	; 3
    2b24:	10 f4       	brcc	.+4      	;  0x2b2a
    2b26:	0e 94 c8 27 	call	0x4f90	;  0x4f90
    2b2a:	80 91 e2 21 	lds	r24, 0x21E2
    2b2e:	90 91 e2 21 	lds	r25, 0x21E2
    2b32:	80 e8       	ldi	r24, 0x80	; 128
    2b34:	89 27       	eor	r24, r25
    2b36:	80 93 e2 21 	sts	0x21E2, r24
    2b3a:	8a e5       	ldi	r24, 0x5A	; 90
    2b3c:	88 8b       	std	Y+16, r24	; 0x10
    2b3e:	80 91 e2 21 	lds	r24, 0x21E2
    2b42:	8f 3f       	cpi	r24, 0xFF	; 255
    2b44:	11 f0       	breq	.+4      	;  0x2b4a
    2b46:	0e 94 c8 27 	call	0x4f90	;  0x4f90
    2b4a:	88 e7       	ldi	r24, 0x78	; 120
    2b4c:	80 93 06 20 	sts	0x2006, r24
    2b50:	0e 94 59 13 	call	0x26b2	;  0x26b2
    2b54:	f8 2e       	mov	r15, r24
    2b56:	0e 94 59 13 	call	0x26b2	;  0x26b2
    2b5a:	08 2f       	mov	r16, r24
    2b5c:	0e 94 59 13 	call	0x26b2	;  0x26b2
    2b60:	18 2f       	mov	r17, r24
    2b62:	0e 94 59 13 	call	0x26b2	;  0x26b2
    2b66:	2f 2d       	mov	r18, r15
    2b68:	40 2f       	mov	r20, r16
    2b6a:	61 2f       	mov	r22, r17
    2b6c:	0e 94 ab 11 	call	0x2356	;  0x2356
    2b70:	8b 81       	ldd	r24, Y+3	; 0x03
    2b72:	6c 96       	adiw	r28, 0x1c	; 28
    2b74:	cd bf       	out	0x3d, r28	; 61
    2b76:	de bf       	out	0x3e, r29	; 62
    2b78:	df 91       	pop	r29
    2b7a:	cf 91       	pop	r28
    2b7c:	1f 91       	pop	r17
    2b7e:	0f 91       	pop	r16
    2b80:	ff 90       	pop	r15
    2b82:	08 95       	ret
    2b84:	ff 92       	push	r15
    2b86:	0f 93       	push	r16
    2b88:	1f 93       	push	r17
    2b8a:	cf 93       	push	r28
    2b8c:	df 93       	push	r29
    2b8e:	cd b7       	in	r28, 0x3d	; 61
    2b90:	de b7       	in	r29, 0x3e	; 62
    2b92:	a2 97       	sbiw	r28, 0x22	; 34
    2b94:	cd bf       	out	0x3d, r28	; 61
    2b96:	de bf       	out	0x3e, r29	; 62
    2b98:	80 91 06 20 	lds	r24, 0x2006
    2b9c:	88 37       	cpi	r24, 0x78	; 120
    2b9e:	41 f4       	brne	.+16     	;  0x2bb0
    2ba0:	80 91 06 20 	lds	r24, 0x2006
    2ba4:	88 37       	cpi	r24, 0x78	; 120
    2ba6:	11 f0       	breq	.+4      	;  0x2bac
    2ba8:	0e 94 c8 27 	call	0x4f90	;  0x4f90
    2bac:	8a e5       	ldi	r24, 0x5A	; 90
    2bae:	9c c1       	rjmp	.+824    	;  0x2ee8
    2bb0:	85 ea       	ldi	r24, 0xA5	; 165
    2bb2:	8b 83       	std	Y+3, r24	; 0x03
    2bb4:	90 91 e2 21 	lds	r25, 0x21E2
    2bb8:	82 e0       	ldi	r24, 0x02	; 2
    2bba:	89 27       	eor	r24, r25
    2bbc:	80 93 e2 21 	sts	0x21E2, r24
    2bc0:	8a e2       	ldi	r24, 0x2A	; 42
    2bc2:	90 e0       	ldi	r25, 0x00	; 0
    2bc4:	0e 94 dd 12 	call	0x25ba	;  0x25ba
    2bc8:	90 91 e2 21 	lds	r25, 0x21E2
    2bcc:	84 e0       	ldi	r24, 0x04	; 4
    2bce:	89 27       	eor	r24, r25
    2bd0:	80 93 e2 21 	sts	0x21E2, r24
    2bd4:	83 e4       	ldi	r24, 0x43	; 67
    2bd6:	90 e0       	ldi	r25, 0x00	; 0
    2bd8:	0e 94 6d 13 	call	0x26da	;  0x26da
    2bdc:	90 91 e2 21 	lds	r25, 0x21E2
    2be0:	88 e0       	ldi	r24, 0x08	; 8
    2be2:	89 27       	eor	r24, r25
    2be4:	80 93 e2 21 	sts	0x21E2, r24
    2be8:	90 91 e2 21 	lds	r25, 0x21E2
    2bec:	80 e1       	ldi	r24, 0x10	; 16
    2bee:	89 27       	eor	r24, r25
    2bf0:	80 93 e2 21 	sts	0x21E2, r24
    2bf4:	ce 01       	movw	r24, r28
    2bf6:	41 96       	adiw	r24, 0x11	; 17
    2bf8:	0e 94 5b 19 	call	0x32b6	;  0x32b6
    2bfc:	90 91 e2 21 	lds	r25, 0x21E2
    2c00:	80 e2       	ldi	r24, 0x20	; 32
    2c02:	89 27       	eor	r24, r25
    2c04:	80 93 e2 21 	sts	0x21E2, r24
    2c08:	0e 94 61 11 	call	0x22c2	;  0x22c2
    2c0c:	89 83       	std	Y+1, r24	; 0x01
    2c0e:	9a 83       	std	Y+2, r25	; 0x02
    2c10:	90 91 e2 21 	lds	r25, 0x21E2
    2c14:	81 e0       	ldi	r24, 0x01	; 1
    2c16:	89 27       	eor	r24, r25
    2c18:	80 93 e2 21 	sts	0x21E2, r24
    2c1c:	ce 01       	movw	r24, r28
    2c1e:	41 96       	adiw	r24, 0x11	; 17
    2c20:	8c 83       	std	Y+4, r24	; 0x04
    2c22:	9d 83       	std	Y+5, r25	; 0x05
    2c24:	8c 81       	ldd	r24, Y+4	; 0x04
    2c26:	9d 81       	ldd	r25, Y+5	; 0x05
    2c28:	fc 01       	movw	r30, r24
    2c2a:	20 81       	ld	r18, Z
    2c2c:	31 81       	ldd	r19, Z+1	; 0x01
    2c2e:	8c 81       	ldd	r24, Y+4	; 0x04
    2c30:	9d 81       	ldd	r25, Y+5	; 0x05
    2c32:	02 96       	adiw	r24, 0x02	; 2
    2c34:	fc 01       	movw	r30, r24
    2c36:	40 81       	ld	r20, Z
    2c38:	51 81       	ldd	r21, Z+1	; 0x01
    2c3a:	8c 81       	ldd	r24, Y+4	; 0x04
    2c3c:	9d 81       	ldd	r25, Y+5	; 0x05
    2c3e:	04 96       	adiw	r24, 0x04	; 4
    2c40:	fc 01       	movw	r30, r24
    2c42:	80 81       	ld	r24, Z
    2c44:	91 81       	ldd	r25, Z+1	; 0x01
    2c46:	48 27       	eor	r20, r24
    2c48:	59 27       	eor	r21, r25
    2c4a:	8c 81       	ldd	r24, Y+4	; 0x04
    2c4c:	9d 81       	ldd	r25, Y+5	; 0x05
    2c4e:	06 96       	adiw	r24, 0x06	; 6
    2c50:	fc 01       	movw	r30, r24
    2c52:	80 81       	ld	r24, Z
    2c54:	91 81       	ldd	r25, Z+1	; 0x01
    2c56:	48 27       	eor	r20, r24
    2c58:	59 27       	eor	r21, r25
    2c5a:	8c 81       	ldd	r24, Y+4	; 0x04
    2c5c:	9d 81       	ldd	r25, Y+5	; 0x05
    2c5e:	08 96       	adiw	r24, 0x08	; 8
    2c60:	fc 01       	movw	r30, r24
    2c62:	80 81       	ld	r24, Z
    2c64:	91 81       	ldd	r25, Z+1	; 0x01
    2c66:	48 27       	eor	r20, r24
    2c68:	59 27       	eor	r21, r25
    2c6a:	8c 81       	ldd	r24, Y+4	; 0x04
    2c6c:	9d 81       	ldd	r25, Y+5	; 0x05
    2c6e:	0a 96       	adiw	r24, 0x0a	; 10
    2c70:	fc 01       	movw	r30, r24
    2c72:	80 81       	ld	r24, Z
    2c74:	91 81       	ldd	r25, Z+1	; 0x01
    2c76:	48 27       	eor	r20, r24
    2c78:	59 27       	eor	r21, r25
    2c7a:	8c 81       	ldd	r24, Y+4	; 0x04
    2c7c:	9d 81       	ldd	r25, Y+5	; 0x05
    2c7e:	0c 96       	adiw	r24, 0x0c	; 12
    2c80:	fc 01       	movw	r30, r24
    2c82:	80 81       	ld	r24, Z
    2c84:	91 81       	ldd	r25, Z+1	; 0x01
    2c86:	84 27       	eor	r24, r20
    2c88:	95 27       	eor	r25, r21
    2c8a:	82 27       	eor	r24, r18
    2c8c:	93 27       	eor	r25, r19
    2c8e:	9c 01       	movw	r18, r24
    2c90:	f7 eb       	ldi	r31, 0xB7	; 183
    2c92:	2f 27       	eor	r18, r31
    2c94:	fa e7       	ldi	r31, 0x7A	; 122
    2c96:	3f 27       	eor	r19, r31
    2c98:	8c 81       	ldd	r24, Y+4	; 0x04
    2c9a:	9d 81       	ldd	r25, Y+5	; 0x05
    2c9c:	fc 01       	movw	r30, r24
    2c9e:	20 83       	st	Z, r18
    2ca0:	31 83       	std	Z+1, r19	; 0x01
    2ca2:	90 91 e2 21 	lds	r25, 0x21E2
    2ca6:	80 e4       	ldi	r24, 0x40	; 64
    2ca8:	89 27       	eor	r24, r25
    2caa:	80 93 e2 21 	sts	0x21E2, r24
    2cae:	1c 8e       	std	Y+28, r1	; 0x1c
    2cb0:	ea c0       	rjmp	.+468    	;  0x2e86
    2cb2:	89 81       	ldd	r24, Y+1	; 0x01
    2cb4:	9a 81       	ldd	r25, Y+2	; 0x02
    2cb6:	93 70       	andi	r25, 0x03	; 3
    2cb8:	0e 94 6d 13 	call	0x26da	;  0x26da
    2cbc:	0e 94 cf 11 	call	0x239e	;  0x239e
    2cc0:	8e 83       	std	Y+6, r24	; 0x06
    2cc2:	9f 83       	std	Y+7, r25	; 0x07
    2cc4:	8c 81       	ldd	r24, Y+4	; 0x04
    2cc6:	9d 81       	ldd	r25, Y+5	; 0x05
    2cc8:	fc 01       	movw	r30, r24
    2cca:	20 81       	ld	r18, Z
    2ccc:	31 81       	ldd	r19, Z+1	; 0x01
    2cce:	8e 81       	ldd	r24, Y+6	; 0x06
    2cd0:	9f 81       	ldd	r25, Y+7	; 0x07
    2cd2:	28 27       	eor	r18, r24
    2cd4:	39 27       	eor	r19, r25
    2cd6:	8c 81       	ldd	r24, Y+4	; 0x04
    2cd8:	9d 81       	ldd	r25, Y+5	; 0x05
    2cda:	fc 01       	movw	r30, r24
    2cdc:	20 83       	st	Z, r18
    2cde:	31 83       	std	Z+1, r19	; 0x01
    2ce0:	0e 94 cf 11 	call	0x239e	;  0x239e
    2ce4:	8c 01       	movw	r16, r24
    2ce6:	8c 81       	ldd	r24, Y+4	; 0x04
    2ce8:	9d 81       	ldd	r25, Y+5	; 0x05
    2cea:	fc 01       	movw	r30, r24
    2cec:	80 81       	ld	r24, Z
    2cee:	91 81       	ldd	r25, Z+1	; 0x01
    2cf0:	2d e2       	ldi	r18, 0x2D	; 45
    2cf2:	32 e0       	ldi	r19, 0x02	; 2
    2cf4:	b9 01       	movw	r22, r18
    2cf6:	0e 94 c3 24 	call	0x4986	;  0x4986
    2cfa:	0e 94 f0 12 	call	0x25e0	;  0x25e0
    2cfe:	80 27       	eor	r24, r16
    2d00:	91 27       	eor	r25, r17
    2d02:	88 87       	std	Y+8, r24	; 0x08
    2d04:	99 87       	std	Y+9, r25	; 0x09
    2d06:	48 85       	ldd	r20, Y+8	; 0x08
    2d08:	59 85       	ldd	r21, Y+9	; 0x09
    2d0a:	9a 01       	movw	r18, r20
    2d0c:	a1 ef       	ldi	r26, 0xF1	; 241
    2d0e:	b0 ef       	ldi	r27, 0xF0	; 240
    2d10:	0e 94 16 25 	call	0x4a2c	;  0x4a2c
    2d14:	92 95       	swap	r25
    2d16:	82 95       	swap	r24
    2d18:	8f 70       	andi	r24, 0x0F	; 15
    2d1a:	89 27       	eor	r24, r25
    2d1c:	9f 70       	andi	r25, 0x0F	; 15
    2d1e:	89 27       	eor	r24, r25
    2d20:	61 e1       	ldi	r22, 0x11	; 17
    2d22:	68 9f       	mul	r22, r24
    2d24:	90 01       	movw	r18, r0
    2d26:	69 9f       	mul	r22, r25
    2d28:	30 0d       	add	r19, r0
    2d2a:	11 24       	eor	r1, r1
    2d2c:	ca 01       	movw	r24, r20
    2d2e:	82 1b       	sub	r24, r18
    2d30:	93 0b       	sbc	r25, r19
    2d32:	88 0f       	add	r24, r24
    2d34:	99 1f       	adc	r25, r25
    2d36:	8b 56       	subi	r24, 0x6B	; 107
    2d38:	9d 4d       	sbci	r25, 0xDD	; 221
    2d3a:	fc 01       	movw	r30, r24
    2d3c:	80 81       	ld	r24, Z
    2d3e:	91 81       	ldd	r25, Z+1	; 0x01
    2d40:	8a 87       	std	Y+10, r24	; 0x0a
    2d42:	9b 87       	std	Y+11, r25	; 0x0b
    2d44:	0e 94 cf 11 	call	0x239e	;  0x239e
    2d48:	8c 01       	movw	r16, r24
    2d4a:	8a 85       	ldd	r24, Y+10	; 0x0a
    2d4c:	9b 85       	ldd	r25, Y+11	; 0x0b
    2d4e:	25 ef       	ldi	r18, 0xF5	; 245
    2d50:	32 e0       	ldi	r19, 0x02	; 2
    2d52:	b9 01       	movw	r22, r18
    2d54:	0e 94 c3 24 	call	0x4986	;  0x4986
    2d58:	0e 94 f0 12 	call	0x25e0	;  0x25e0
    2d5c:	80 27       	eor	r24, r16
    2d5e:	91 27       	eor	r25, r17
    2d60:	8c 87       	std	Y+12, r24	; 0x0c
    2d62:	9d 87       	std	Y+13, r25	; 0x0d
    2d64:	4c 85       	ldd	r20, Y+12	; 0x0c
    2d66:	5d 85       	ldd	r21, Y+13	; 0x0d
    2d68:	9a 01       	movw	r18, r20
    2d6a:	a1 ef       	ldi	r26, 0xF1	; 241
    2d6c:	b0 ef       	ldi	r27, 0xF0	; 240
    2d6e:	0e 94 16 25 	call	0x4a2c	;  0x4a2c
    2d72:	92 95       	swap	r25
    2d74:	82 95       	swap	r24
    2d76:	8f 70       	andi	r24, 0x0F	; 15
    2d78:	89 27       	eor	r24, r25
    2d7a:	9f 70       	andi	r25, 0x0F	; 15
    2d7c:	89 27       	eor	r24, r25
    2d7e:	61 e1       	ldi	r22, 0x11	; 17
    2d80:	68 9f       	mul	r22, r24
    2d82:	90 01       	movw	r18, r0
    2d84:	69 9f       	mul	r22, r25
    2d86:	30 0d       	add	r19, r0
    2d88:	11 24       	eor	r1, r1
    2d8a:	ca 01       	movw	r24, r20
    2d8c:	82 1b       	sub	r24, r18
    2d8e:	93 0b       	sbc	r25, r19
    2d90:	80 93 e1 21 	sts	0x21E1, r24
    2d94:	0e 94 cf 11 	call	0x239e	;  0x239e
    2d98:	8c 01       	movw	r16, r24
    2d9a:	0e 94 cf 11 	call	0x239e	;  0x239e
    2d9e:	29 e5       	ldi	r18, 0x59	; 89
    2da0:	33 e0       	ldi	r19, 0x03	; 3
    2da2:	b9 01       	movw	r22, r18
    2da4:	0e 94 c3 24 	call	0x4986	;  0x4986
    2da8:	0e 94 f0 12 	call	0x25e0	;  0x25e0
    2dac:	80 27       	eor	r24, r16
    2dae:	91 27       	eor	r25, r17
    2db0:	8e 87       	std	Y+14, r24	; 0x0e
    2db2:	9f 87       	std	Y+15, r25	; 0x0f
    2db4:	4e 85       	ldd	r20, Y+14	; 0x0e
    2db6:	5f 85       	ldd	r21, Y+15	; 0x0f
    2db8:	9a 01       	movw	r18, r20
    2dba:	a9 ed       	ldi	r26, 0xD9	; 217
    2dbc:	ba e8       	ldi	r27, 0x8A	; 138
    2dbe:	0e 94 16 25 	call	0x4a2c	;  0x4a2c
    2dc2:	96 95       	lsr	r25
    2dc4:	87 95       	ror	r24
    2dc6:	92 95       	swap	r25
    2dc8:	82 95       	swap	r24
    2dca:	8f 70       	andi	r24, 0x0F	; 15
    2dcc:	89 27       	eor	r24, r25
    2dce:	9f 70       	andi	r25, 0x0F	; 15
    2dd0:	89 27       	eor	r24, r25
    2dd2:	6b e3       	ldi	r22, 0x3B	; 59
    2dd4:	68 9f       	mul	r22, r24
    2dd6:	90 01       	movw	r18, r0
    2dd8:	69 9f       	mul	r22, r25
    2dda:	30 0d       	add	r19, r0
    2ddc:	11 24       	eor	r1, r1
    2dde:	ca 01       	movw	r24, r20
    2de0:	82 1b       	sub	r24, r18
    2de2:	93 0b       	sbc	r25, r19
    2de4:	0e 94 6d 13 	call	0x26da	;  0x26da
    2de8:	0e 94 cf 11 	call	0x239e	;  0x239e
    2dec:	8c 01       	movw	r16, r24
    2dee:	81 e0       	ldi	r24, 0x01	; 1
    2df0:	90 e0       	ldi	r25, 0x00	; 0
    2df2:	0e 94 f0 12 	call	0x25e0	;  0x25e0
    2df6:	a8 01       	movw	r20, r16
    2df8:	48 27       	eor	r20, r24
    2dfa:	59 27       	eor	r21, r25
    2dfc:	9a 01       	movw	r18, r20
    2dfe:	a3 e9       	ldi	r26, 0x93	; 147
    2e00:	b1 e2       	ldi	r27, 0x21	; 33
    2e02:	0e 94 16 25 	call	0x4a2c	;  0x4a2c
    2e06:	96 95       	lsr	r25
    2e08:	87 95       	ror	r24
    2e0a:	96 95       	lsr	r25
    2e0c:	87 95       	ror	r24
    2e0e:	96 95       	lsr	r25
    2e10:	87 95       	ror	r24
    2e12:	6d e3       	ldi	r22, 0x3D	; 61
    2e14:	68 9f       	mul	r22, r24
    2e16:	90 01       	movw	r18, r0
    2e18:	69 9f       	mul	r22, r25
    2e1a:	30 0d       	add	r19, r0
    2e1c:	11 24       	eor	r1, r1
    2e1e:	ca 01       	movw	r24, r20
    2e20:	82 1b       	sub	r24, r18
    2e22:	93 0b       	sbc	r25, r19
    2e24:	29 81       	ldd	r18, Y+1	; 0x01
    2e26:	3a 81       	ldd	r19, Y+2	; 0x02
    2e28:	82 27       	eor	r24, r18
    2e2a:	93 27       	eor	r25, r19
    2e2c:	89 83       	std	Y+1, r24	; 0x01
    2e2e:	9a 83       	std	Y+2, r25	; 0x02
    2e30:	8c 8d       	ldd	r24, Y+28	; 0x1c
    2e32:	84 30       	cpi	r24, 0x04	; 4
    2e34:	28 f1       	brcs	.+74     	;  0x2e80
    2e36:	0e 94 59 13 	call	0x26b2	;  0x26b2
    2e3a:	9c 01       	movw	r18, r24
    2e3c:	89 81       	ldd	r24, Y+1	; 0x01
    2e3e:	9a 81       	ldd	r25, Y+2	; 0x02
    2e40:	82 27       	eor	r24, r18
    2e42:	93 27       	eor	r25, r19
    2e44:	89 83       	std	Y+1, r24	; 0x01
    2e46:	9a 83       	std	Y+2, r25	; 0x02
    2e48:	0e 94 59 13 	call	0x26b2	;  0x26b2
    2e4c:	9c 01       	movw	r18, r24
    2e4e:	8c 81       	ldd	r24, Y+4	; 0x04
    2e50:	9d 81       	ldd	r25, Y+5	; 0x05
    2e52:	fc 01       	movw	r30, r24
    2e54:	80 81       	ld	r24, Z
    2e56:	91 81       	ldd	r25, Z+1	; 0x01
    2e58:	28 27       	eor	r18, r24
    2e5a:	39 27       	eor	r19, r25
    2e5c:	8c 81       	ldd	r24, Y+4	; 0x04
    2e5e:	9d 81       	ldd	r25, Y+5	; 0x05
    2e60:	fc 01       	movw	r30, r24
    2e62:	20 83       	st	Z, r18
    2e64:	31 83       	std	Z+1, r19	; 0x01
    2e66:	0e 94 cf 11 	call	0x239e	;  0x239e
    2e6a:	89 2b       	or	r24, r25
    2e6c:	19 f0       	breq	.+6      	;  0x2e74
    2e6e:	81 e0       	ldi	r24, 0x01	; 1
    2e70:	90 e0       	ldi	r25, 0x00	; 0
    2e72:	02 c0       	rjmp	.+4      	;  0x2e78
    2e74:	80 e0       	ldi	r24, 0x00	; 0
    2e76:	90 e0       	ldi	r25, 0x00	; 0
    2e78:	98 2f       	mov	r25, r24
    2e7a:	8c 8d       	ldd	r24, Y+28	; 0x1c
    2e7c:	89 0f       	add	r24, r25
    2e7e:	8c 8f       	std	Y+28, r24	; 0x1c
    2e80:	8c 8d       	ldd	r24, Y+28	; 0x1c
    2e82:	8f 5f       	subi	r24, 0xFF	; 255
    2e84:	8c 8f       	std	Y+28, r24	; 0x1c
    2e86:	8c 8d       	ldd	r24, Y+28	; 0x1c
    2e88:	88 30       	cpi	r24, 0x08	; 8
    2e8a:	08 f4       	brcc	.+2      	;  0x2e8e
    2e8c:	12 cf       	rjmp	.-476    	;  0x2cb2
    2e8e:	8c 8d       	ldd	r24, Y+28	; 0x1c
    2e90:	86 30       	cpi	r24, 0x06	; 6
    2e92:	08 f4       	brcc	.+2      	;  0x2e96
    2e94:	0c cf       	rjmp	.-488    	;  0x2cae
    2e96:	8c 8d       	ldd	r24, Y+28	; 0x1c
    2e98:	87 30       	cpi	r24, 0x07	; 7
    2e9a:	10 f4       	brcc	.+4      	;  0x2ea0
    2e9c:	0e 94 c8 27 	call	0x4f90	;  0x4f90
    2ea0:	80 91 e2 21 	lds	r24, 0x21E2
    2ea4:	90 91 e2 21 	lds	r25, 0x21E2
    2ea8:	80 e8       	ldi	r24, 0x80	; 128
    2eaa:	89 27       	eor	r24, r25
    2eac:	80 93 e2 21 	sts	0x21E2, r24
    2eb0:	8a e5       	ldi	r24, 0x5A	; 90
    2eb2:	88 8b       	std	Y+16, r24	; 0x10
    2eb4:	80 91 e2 21 	lds	r24, 0x21E2
    2eb8:	8f 3f       	cpi	r24, 0xFF	; 255
    2eba:	11 f0       	breq	.+4      	;  0x2ec0
    2ebc:	0e 94 c8 27 	call	0x4f90	;  0x4f90
    2ec0:	88 e7       	ldi	r24, 0x78	; 120
    2ec2:	80 93 06 20 	sts	0x2006, r24
    2ec6:	0e 94 59 13 	call	0x26b2	;  0x26b2
    2eca:	f8 2e       	mov	r15, r24
    2ecc:	0e 94 59 13 	call	0x26b2	;  0x26b2
    2ed0:	08 2f       	mov	r16, r24
    2ed2:	0e 94 59 13 	call	0x26b2	;  0x26b2
    2ed6:	18 2f       	mov	r17, r24
    2ed8:	0e 94 59 13 	call	0x26b2	;  0x26b2
    2edc:	2f 2d       	mov	r18, r15
    2ede:	40 2f       	mov	r20, r16
    2ee0:	61 2f       	mov	r22, r17
    2ee2:	0e 94 ab 11 	call	0x2356	;  0x2356
    2ee6:	8b 81       	ldd	r24, Y+3	; 0x03
    2ee8:	a2 96       	adiw	r28, 0x22	; 34
    2eea:	cd bf       	out	0x3d, r28	; 61
    2eec:	de bf       	out	0x3e, r29	; 62
    2eee:	df 91       	pop	r29
    2ef0:	cf 91       	pop	r28
    2ef2:	1f 91       	pop	r17
    2ef4:	0f 91       	pop	r16
    2ef6:	ff 90       	pop	r15
    2ef8:	08 95       	ret
    2efa:	cf 93       	push	r28
    2efc:	df 93       	push	r29
    2efe:	1f 92       	push	r1
    2f00:	1f 92       	push	r1
    2f02:	cd b7       	in	r28, 0x3d	; 61
    2f04:	de b7       	in	r29, 0x3e	; 62
    2f06:	89 83       	std	Y+1, r24	; 0x01
    2f08:	9a 83       	std	Y+2, r25	; 0x02
    2f0a:	89 81       	ldd	r24, Y+1	; 0x01
    2f0c:	9a 81       	ldd	r25, Y+2	; 0x02
    2f0e:	fc 01       	movw	r30, r24
    2f10:	82 81       	ldd	r24, Z+2	; 0x02
    2f12:	93 81       	ldd	r25, Z+3	; 0x03
    2f14:	29 81       	ldd	r18, Y+1	; 0x01
    2f16:	3a 81       	ldd	r19, Y+2	; 0x02
    2f18:	f9 01       	movw	r30, r18
    2f1a:	25 81       	ldd	r18, Z+5	; 0x05
    2f1c:	fc 01       	movw	r30, r24
    2f1e:	25 83       	std	Z+5, r18	; 0x05
    2f20:	89 81       	ldd	r24, Y+1	; 0x01
    2f22:	9a 81       	ldd	r25, Y+2	; 0x02
    2f24:	fc 01       	movw	r30, r24
    2f26:	82 81       	ldd	r24, Z+2	; 0x02
    2f28:	93 81       	ldd	r25, Z+3	; 0x03
    2f2a:	29 81       	ldd	r18, Y+1	; 0x01
    2f2c:	3a 81       	ldd	r19, Y+2	; 0x02
    2f2e:	f9 01       	movw	r30, r18
    2f30:	25 81       	ldd	r18, Z+5	; 0x05
    2f32:	fc 01       	movw	r30, r24
    2f34:	21 83       	std	Z+1, r18	; 0x01
    2f36:	89 81       	ldd	r24, Y+1	; 0x01
    2f38:	9a 81       	ldd	r25, Y+2	; 0x02
    2f3a:	fc 01       	movw	r30, r24
    2f3c:	82 81       	ldd	r24, Z+2	; 0x02
    2f3e:	93 81       	ldd	r25, Z+3	; 0x03
    2f40:	29 81       	ldd	r18, Y+1	; 0x01
    2f42:	3a 81       	ldd	r19, Y+2	; 0x02
    2f44:	f9 01       	movw	r30, r18
    2f46:	24 81       	ldd	r18, Z+4	; 0x04
    2f48:	fc 01       	movw	r30, r24
    2f4a:	26 83       	std	Z+6, r18	; 0x06
    2f4c:	89 81       	ldd	r24, Y+1	; 0x01
    2f4e:	9a 81       	ldd	r25, Y+2	; 0x02
    2f50:	fc 01       	movw	r30, r24
    2f52:	82 81       	ldd	r24, Z+2	; 0x02
    2f54:	93 81       	ldd	r25, Z+3	; 0x03
    2f56:	29 81       	ldd	r18, Y+1	; 0x01
    2f58:	3a 81       	ldd	r19, Y+2	; 0x02
    2f5a:	f9 01       	movw	r30, r18
    2f5c:	24 81       	ldd	r18, Z+4	; 0x04
    2f5e:	fc 01       	movw	r30, r24
    2f60:	22 83       	std	Z+2, r18	; 0x02
    2f62:	89 81       	ldd	r24, Y+1	; 0x01
    2f64:	9a 81       	ldd	r25, Y+2	; 0x02
    2f66:	fc 01       	movw	r30, r24
    2f68:	80 81       	ld	r24, Z
    2f6a:	91 81       	ldd	r25, Z+1	; 0x01
    2f6c:	29 81       	ldd	r18, Y+1	; 0x01
    2f6e:	3a 81       	ldd	r19, Y+2	; 0x02
    2f70:	f9 01       	movw	r30, r18
    2f72:	20 81       	ld	r18, Z
    2f74:	31 81       	ldd	r19, Z+1	; 0x01
    2f76:	f9 01       	movw	r30, r18
    2f78:	23 81       	ldd	r18, Z+3	; 0x03
    2f7a:	fc 01       	movw	r30, r24
    2f7c:	23 83       	std	Z+3, r18	; 0x03
    2f7e:	89 81       	ldd	r24, Y+1	; 0x01
    2f80:	9a 81       	ldd	r25, Y+2	; 0x02
    2f82:	fc 01       	movw	r30, r24
    2f84:	80 81       	ld	r24, Z
    2f86:	91 81       	ldd	r25, Z+1	; 0x01
    2f88:	29 81       	ldd	r18, Y+1	; 0x01
    2f8a:	3a 81       	ldd	r19, Y+2	; 0x02
    2f8c:	f9 01       	movw	r30, r18
    2f8e:	20 81       	ld	r18, Z
    2f90:	31 81       	ldd	r19, Z+1	; 0x01
    2f92:	f9 01       	movw	r30, r18
    2f94:	23 81       	ldd	r18, Z+3	; 0x03
    2f96:	fc 01       	movw	r30, r24
    2f98:	23 83       	std	Z+3, r18	; 0x03
    2f9a:	89 81       	ldd	r24, Y+1	; 0x01
    2f9c:	9a 81       	ldd	r25, Y+2	; 0x02
    2f9e:	fc 01       	movw	r30, r24
    2fa0:	80 81       	ld	r24, Z
    2fa2:	91 81       	ldd	r25, Z+1	; 0x01
    2fa4:	29 81       	ldd	r18, Y+1	; 0x01
    2fa6:	3a 81       	ldd	r19, Y+2	; 0x02
    2fa8:	f9 01       	movw	r30, r18
    2faa:	20 81       	ld	r18, Z
    2fac:	31 81       	ldd	r19, Z+1	; 0x01
    2fae:	f9 01       	movw	r30, r18
    2fb0:	23 81       	ldd	r18, Z+3	; 0x03
    2fb2:	fc 01       	movw	r30, r24
    2fb4:	23 83       	std	Z+3, r18	; 0x03
    2fb6:	89 81       	ldd	r24, Y+1	; 0x01
    2fb8:	9a 81       	ldd	r25, Y+2	; 0x02
    2fba:	fc 01       	movw	r30, r24
    2fbc:	80 81       	ld	r24, Z
    2fbe:	91 81       	ldd	r25, Z+1	; 0x01
    2fc0:	24 e0       	ldi	r18, 0x04	; 4
    2fc2:	fc 01       	movw	r30, r24
    2fc4:	24 83       	std	Z+4, r18	; 0x04
    2fc6:	89 81       	ldd	r24, Y+1	; 0x01
    2fc8:	9a 81       	ldd	r25, Y+2	; 0x02
    2fca:	fc 01       	movw	r30, r24
    2fcc:	80 81       	ld	r24, Z
    2fce:	91 81       	ldd	r25, Z+1	; 0x01
    2fd0:	23 e0       	ldi	r18, 0x03	; 3
    2fd2:	fc 01       	movw	r30, r24
    2fd4:	25 83       	std	Z+5, r18	; 0x05
    2fd6:	89 81       	ldd	r24, Y+1	; 0x01
    2fd8:	9a 81       	ldd	r25, Y+2	; 0x02
    2fda:	fc 01       	movw	r30, r24
    2fdc:	80 81       	ld	r24, Z
    2fde:	91 81       	ldd	r25, Z+1	; 0x01
    2fe0:	fc 01       	movw	r30, r24
    2fe2:	17 82       	std	Z+7, r1	; 0x07
    2fe4:	89 81       	ldd	r24, Y+1	; 0x01
    2fe6:	9a 81       	ldd	r25, Y+2	; 0x02
    2fe8:	fc 01       	movw	r30, r24
    2fea:	80 81       	ld	r24, Z
    2fec:	91 81       	ldd	r25, Z+1	; 0x01
    2fee:	22 e2       	ldi	r18, 0x22	; 34
    2ff0:	fc 01       	movw	r30, r24
    2ff2:	26 83       	std	Z+6, r18	; 0x06
    2ff4:	89 81       	ldd	r24, Y+1	; 0x01
    2ff6:	9a 81       	ldd	r25, Y+2	; 0x02
    2ff8:	fc 01       	movw	r30, r24
    2ffa:	80 81       	ld	r24, Z
    2ffc:	91 81       	ldd	r25, Z+1	; 0x01
    2ffe:	29 81       	ldd	r18, Y+1	; 0x01
    3000:	3a 81       	ldd	r19, Y+2	; 0x02
    3002:	f9 01       	movw	r30, r18
    3004:	20 81       	ld	r18, Z
    3006:	31 81       	ldd	r19, Z+1	; 0x01
    3008:	f9 01       	movw	r30, r18
    300a:	24 81       	ldd	r18, Z+4	; 0x04
    300c:	28 61       	ori	r18, 0x18	; 24
    300e:	fc 01       	movw	r30, r24
    3010:	24 83       	std	Z+4, r18	; 0x04
    3012:	0f 90       	pop	r0
    3014:	0f 90       	pop	r0
    3016:	df 91       	pop	r29
    3018:	cf 91       	pop	r28
    301a:	08 95       	ret
    301c:	cf 93       	push	r28
    301e:	df 93       	push	r29
    3020:	00 d0       	rcall	.+0      	;  0x3022
    3022:	cd b7       	in	r28, 0x3d	; 61
    3024:	de b7       	in	r29, 0x3e	; 62
    3026:	89 83       	std	Y+1, r24	; 0x01
    3028:	9a 83       	std	Y+2, r25	; 0x02
    302a:	6b 83       	std	Y+3, r22	; 0x03
    302c:	00 00       	nop
    302e:	89 81       	ldd	r24, Y+1	; 0x01
    3030:	9a 81       	ldd	r25, Y+2	; 0x02
    3032:	fc 01       	movw	r30, r24
    3034:	80 81       	ld	r24, Z
    3036:	91 81       	ldd	r25, Z+1	; 0x01
    3038:	fc 01       	movw	r30, r24
    303a:	81 81       	ldd	r24, Z+1	; 0x01
    303c:	88 2f       	mov	r24, r24
    303e:	90 e0       	ldi	r25, 0x00	; 0
    3040:	80 72       	andi	r24, 0x20	; 32
    3042:	99 27       	eor	r25, r25
    3044:	89 2b       	or	r24, r25
    3046:	99 f3       	breq	.-26     	;  0x302e
    3048:	89 81       	ldd	r24, Y+1	; 0x01
    304a:	9a 81       	ldd	r25, Y+2	; 0x02
    304c:	fc 01       	movw	r30, r24
    304e:	80 81       	ld	r24, Z
    3050:	91 81       	ldd	r25, Z+1	; 0x01
    3052:	2b 81       	ldd	r18, Y+3	; 0x03
    3054:	fc 01       	movw	r30, r24
    3056:	20 83       	st	Z, r18
    3058:	00 00       	nop
    305a:	89 81       	ldd	r24, Y+1	; 0x01
    305c:	9a 81       	ldd	r25, Y+2	; 0x02
    305e:	fc 01       	movw	r30, r24
    3060:	80 81       	ld	r24, Z
    3062:	91 81       	ldd	r25, Z+1	; 0x01
    3064:	fc 01       	movw	r30, r24
    3066:	81 81       	ldd	r24, Z+1	; 0x01
    3068:	23 96       	adiw	r28, 0x03	; 3
    306a:	cd bf       	out	0x3d, r28	; 61
    306c:	de bf       	out	0x3e, r29	; 62
    306e:	df 91       	pop	r29
    3070:	cf 91       	pop	r28
    3072:	08 95       	ret
    3074:	cf 93       	push	r28
    3076:	df 93       	push	r29
    3078:	1f 92       	push	r1
    307a:	cd b7       	in	r28, 0x3d	; 61
    307c:	de b7       	in	r29, 0x3e	; 62
    307e:	89 83       	std	Y+1, r24	; 0x01
    3080:	80 91 0f 20 	lds	r24, 0x200F
    3084:	90 91 10 20 	lds	r25, 0x2010
    3088:	69 81       	ldd	r22, Y+1	; 0x01
    308a:	0e 94 0e 18 	call	0x301c	;  0x301c
    308e:	0f 90       	pop	r0
    3090:	df 91       	pop	r29
    3092:	cf 91       	pop	r28
    3094:	08 95       	ret
    3096:	cf 93       	push	r28
    3098:	df 93       	push	r29
    309a:	00 d0       	rcall	.+0      	;  0x309c
    309c:	1f 92       	push	r1
    309e:	cd b7       	in	r28, 0x3d	; 61
    30a0:	de b7       	in	r29, 0x3e	; 62
    30a2:	89 83       	std	Y+1, r24	; 0x01
    30a4:	9a 83       	std	Y+2, r25	; 0x02
    30a6:	6b 83       	std	Y+3, r22	; 0x03
    30a8:	7c 83       	std	Y+4, r23	; 0x04
    30aa:	0e c0       	rjmp	.+28     	;  0x30c8
    30ac:	8b 81       	ldd	r24, Y+3	; 0x03
    30ae:	9c 81       	ldd	r25, Y+4	; 0x04
    30b0:	fc 01       	movw	r30, r24
    30b2:	20 81       	ld	r18, Z
    30b4:	89 81       	ldd	r24, Y+1	; 0x01
    30b6:	9a 81       	ldd	r25, Y+2	; 0x02
    30b8:	62 2f       	mov	r22, r18
    30ba:	0e 94 0e 18 	call	0x301c	;  0x301c
    30be:	8b 81       	ldd	r24, Y+3	; 0x03
    30c0:	9c 81       	ldd	r25, Y+4	; 0x04
    30c2:	01 96       	adiw	r24, 0x01	; 1
    30c4:	8b 83       	std	Y+3, r24	; 0x03
    30c6:	9c 83       	std	Y+4, r25	; 0x04
    30c8:	8b 81       	ldd	r24, Y+3	; 0x03
    30ca:	9c 81       	ldd	r25, Y+4	; 0x04
    30cc:	fc 01       	movw	r30, r24
    30ce:	80 81       	ld	r24, Z
    30d0:	88 23       	and	r24, r24
    30d2:	61 f7       	brne	.-40     	;  0x30ac
    30d4:	24 96       	adiw	r28, 0x04	; 4
    30d6:	cd bf       	out	0x3d, r28	; 61
    30d8:	de bf       	out	0x3e, r29	; 62
    30da:	df 91       	pop	r29
    30dc:	cf 91       	pop	r28
    30de:	08 95       	ret
    30e0:	cf 93       	push	r28
    30e2:	df 93       	push	r29
    30e4:	1f 92       	push	r1
    30e6:	1f 92       	push	r1
    30e8:	cd b7       	in	r28, 0x3d	; 61
    30ea:	de b7       	in	r29, 0x3e	; 62
    30ec:	ce 01       	movw	r24, r28
    30ee:	0c 96       	adiw	r24, 0x0c	; 12
    30f0:	89 83       	std	Y+1, r24	; 0x01
    30f2:	9a 83       	std	Y+2, r25	; 0x02
    30f4:	29 81       	ldd	r18, Y+1	; 0x01
    30f6:	3a 81       	ldd	r19, Y+2	; 0x02
    30f8:	8a 85       	ldd	r24, Y+10	; 0x0a
    30fa:	9b 85       	ldd	r25, Y+11	; 0x0b
    30fc:	ac 01       	movw	r20, r24
    30fe:	68 e7       	ldi	r22, 0x78	; 120
    3100:	70 e0       	ldi	r23, 0x00	; 0
    3102:	83 ee       	ldi	r24, 0xE3	; 227
    3104:	91 e2       	ldi	r25, 0x21	; 33
    3106:	0e 94 22 28 	call	0x5044	;  0x5044
    310a:	88 85       	ldd	r24, Y+8	; 0x08
    310c:	99 85       	ldd	r25, Y+9	; 0x09
    310e:	63 ee       	ldi	r22, 0xE3	; 227
    3110:	71 e2       	ldi	r23, 0x21	; 33
    3112:	0e 94 4b 18 	call	0x3096	;  0x3096
    3116:	0f 90       	pop	r0
    3118:	0f 90       	pop	r0
    311a:	df 91       	pop	r29
    311c:	cf 91       	pop	r28
    311e:	08 95       	ret
    3120:	cf 93       	push	r28
    3122:	df 93       	push	r29
    3124:	1f 92       	push	r1
    3126:	1f 92       	push	r1
    3128:	cd b7       	in	r28, 0x3d	; 61
    312a:	de b7       	in	r29, 0x3e	; 62
    312c:	89 83       	std	Y+1, r24	; 0x01
    312e:	9a 83       	std	Y+2, r25	; 0x02
    3130:	00 00       	nop
    3132:	89 81       	ldd	r24, Y+1	; 0x01
    3134:	9a 81       	ldd	r25, Y+2	; 0x02
    3136:	fc 01       	movw	r30, r24
    3138:	80 81       	ld	r24, Z
    313a:	91 81       	ldd	r25, Z+1	; 0x01
    313c:	fc 01       	movw	r30, r24
    313e:	81 81       	ldd	r24, Z+1	; 0x01
    3140:	88 23       	and	r24, r24
    3142:	bc f7       	brge	.-18     	;  0x3132
    3144:	89 81       	ldd	r24, Y+1	; 0x01
    3146:	9a 81       	ldd	r25, Y+2	; 0x02
    3148:	fc 01       	movw	r30, r24
    314a:	80 81       	ld	r24, Z
    314c:	91 81       	ldd	r25, Z+1	; 0x01
    314e:	fc 01       	movw	r30, r24
    3150:	80 81       	ld	r24, Z
    3152:	0f 90       	pop	r0
    3154:	0f 90       	pop	r0
    3156:	df 91       	pop	r29
    3158:	cf 91       	pop	r28
    315a:	08 95       	ret
    315c:	cf 93       	push	r28
    315e:	df 93       	push	r29
    3160:	cd b7       	in	r28, 0x3d	; 61
    3162:	de b7       	in	r29, 0x3e	; 62
    3164:	80 91 0f 20 	lds	r24, 0x200F
    3168:	90 91 10 20 	lds	r25, 0x2010
    316c:	0e 94 90 18 	call	0x3120	;  0x3120
    3170:	df 91       	pop	r29
    3172:	cf 91       	pop	r28
    3174:	08 95       	ret
    3176:	cf 93       	push	r28
    3178:	df 93       	push	r29
    317a:	cd b7       	in	r28, 0x3d	; 61
    317c:	de b7       	in	r29, 0x3e	; 62
    317e:	2a 97       	sbiw	r28, 0x0a	; 10
    3180:	cd bf       	out	0x3d, r28	; 61
    3182:	de bf       	out	0x3e, r29	; 62
    3184:	8c 83       	std	Y+4, r24	; 0x04
    3186:	9d 83       	std	Y+5, r25	; 0x05
    3188:	6e 83       	std	Y+6, r22	; 0x06
    318a:	7f 83       	std	Y+7, r23	; 0x07
    318c:	48 87       	std	Y+8, r20	; 0x08
    318e:	59 87       	std	Y+9, r21	; 0x09
    3190:	2a 87       	std	Y+10, r18	; 0x0a
    3192:	19 82       	std	Y+1, r1	; 0x01
    3194:	1a 82       	std	Y+2, r1	; 0x02
    3196:	8c 81       	ldd	r24, Y+4	; 0x04
    3198:	9d 81       	ldd	r25, Y+5	; 0x05
    319a:	0e 94 90 18 	call	0x3120	;  0x3120
    319e:	8b 83       	std	Y+3, r24	; 0x03
    31a0:	8c 81       	ldd	r24, Y+4	; 0x04
    31a2:	9d 81       	ldd	r25, Y+5	; 0x05
    31a4:	6b 81       	ldd	r22, Y+3	; 0x03
    31a6:	0e 94 0e 18 	call	0x301c	;  0x301c
    31aa:	2e 81       	ldd	r18, Y+6	; 0x06
    31ac:	3f 81       	ldd	r19, Y+7	; 0x07
    31ae:	89 81       	ldd	r24, Y+1	; 0x01
    31b0:	9a 81       	ldd	r25, Y+2	; 0x02
    31b2:	82 0f       	add	r24, r18
    31b4:	93 1f       	adc	r25, r19
    31b6:	2b 81       	ldd	r18, Y+3	; 0x03
    31b8:	fc 01       	movw	r30, r24
    31ba:	20 83       	st	Z, r18
    31bc:	88 85       	ldd	r24, Y+8	; 0x08
    31be:	99 85       	ldd	r25, Y+9	; 0x09
    31c0:	9c 01       	movw	r18, r24
    31c2:	21 50       	subi	r18, 0x01	; 1
    31c4:	31 09       	sbc	r19, r1
    31c6:	89 81       	ldd	r24, Y+1	; 0x01
    31c8:	9a 81       	ldd	r25, Y+2	; 0x02
    31ca:	82 17       	cp	r24, r18
    31cc:	93 07       	cpc	r25, r19
    31ce:	28 f4       	brcc	.+10     	;  0x31da
    31d0:	89 81       	ldd	r24, Y+1	; 0x01
    31d2:	9a 81       	ldd	r25, Y+2	; 0x02
    31d4:	01 96       	adiw	r24, 0x01	; 1
    31d6:	89 83       	std	Y+1, r24	; 0x01
    31d8:	9a 83       	std	Y+2, r25	; 0x02
    31da:	9b 81       	ldd	r25, Y+3	; 0x03
    31dc:	8a 85       	ldd	r24, Y+10	; 0x0a
    31de:	98 17       	cp	r25, r24
    31e0:	49 f4       	brne	.+18     	;  0x31f4
    31e2:	2e 81       	ldd	r18, Y+6	; 0x06
    31e4:	3f 81       	ldd	r19, Y+7	; 0x07
    31e6:	89 81       	ldd	r24, Y+1	; 0x01
    31e8:	9a 81       	ldd	r25, Y+2	; 0x02
    31ea:	82 0f       	add	r24, r18
    31ec:	93 1f       	adc	r25, r19
    31ee:	fc 01       	movw	r30, r24
    31f0:	10 82       	st	Z, r1
    31f2:	01 c0       	rjmp	.+2      	;  0x31f6
    31f4:	d0 cf       	rjmp	.-96     	;  0x3196
    31f6:	89 81       	ldd	r24, Y+1	; 0x01
    31f8:	9a 81       	ldd	r25, Y+2	; 0x02
    31fa:	2a 96       	adiw	r28, 0x0a	; 10
    31fc:	cd bf       	out	0x3d, r28	; 61
    31fe:	de bf       	out	0x3e, r29	; 62
    3200:	df 91       	pop	r29
    3202:	cf 91       	pop	r28
    3204:	08 95       	ret
    3206:	cf 93       	push	r28
    3208:	df 93       	push	r29
    320a:	cd b7       	in	r28, 0x3d	; 61
    320c:	de b7       	in	r29, 0x3e	; 62
    320e:	80 e2       	ldi	r24, 0x20	; 32
    3210:	96 e0       	ldi	r25, 0x06	; 6
    3212:	21 e0       	ldi	r18, 0x01	; 1
    3214:	fc 01       	movw	r30, r24
    3216:	26 83       	std	Z+6, r18	; 0x06
    3218:	80 e2       	ldi	r24, 0x20	; 32
    321a:	96 e0       	ldi	r25, 0x06	; 6
    321c:	21 e0       	ldi	r18, 0x01	; 1
    321e:	fc 01       	movw	r30, r24
    3220:	21 83       	std	Z+1, r18	; 0x01
    3222:	df 91       	pop	r29
    3224:	cf 91       	pop	r28
    3226:	08 95       	ret
    3228:	cf 93       	push	r28
    322a:	df 93       	push	r29
    322c:	cd b7       	in	r28, 0x3d	; 61
    322e:	de b7       	in	r29, 0x3e	; 62
    3230:	80 e2       	ldi	r24, 0x20	; 32
    3232:	96 e0       	ldi	r25, 0x06	; 6
    3234:	21 e0       	ldi	r18, 0x01	; 1
    3236:	fc 01       	movw	r30, r24
    3238:	25 83       	std	Z+5, r18	; 0x05
    323a:	df 91       	pop	r29
    323c:	cf 91       	pop	r28
    323e:	08 95       	ret
    3240:	cf 93       	push	r28
    3242:	df 93       	push	r29
    3244:	cd b7       	in	r28, 0x3d	; 61
    3246:	de b7       	in	r29, 0x3e	; 62
    3248:	80 e2       	ldi	r24, 0x20	; 32
    324a:	96 e0       	ldi	r25, 0x06	; 6
    324c:	21 e0       	ldi	r18, 0x01	; 1
    324e:	fc 01       	movw	r30, r24
    3250:	26 83       	std	Z+6, r18	; 0x06
    3252:	df 91       	pop	r29
    3254:	cf 91       	pop	r28
    3256:	08 95       	ret
    3258:	cf 93       	push	r28
    325a:	df 93       	push	r29
    325c:	cd b7       	in	r28, 0x3d	; 61
    325e:	de b7       	in	r29, 0x3e	; 62
    3260:	80 e2       	ldi	r24, 0x20	; 32
    3262:	96 e0       	ldi	r25, 0x06	; 6
    3264:	21 e0       	ldi	r18, 0x01	; 1
    3266:	fc 01       	movw	r30, r24
    3268:	27 83       	std	Z+7, r18	; 0x07
    326a:	df 91       	pop	r29
    326c:	cf 91       	pop	r28
    326e:	08 95       	ret
    3270:	cf 93       	push	r28
    3272:	df 93       	push	r29
    3274:	00 d0       	rcall	.+0      	;  0x3276
    3276:	00 d0       	rcall	.+0      	;  0x3278
    3278:	cd b7       	in	r28, 0x3d	; 61
    327a:	de b7       	in	r29, 0x3e	; 62
    327c:	8d 83       	std	Y+5, r24	; 0x05
    327e:	9e 83       	std	Y+6, r25	; 0x06
    3280:	8a ec       	ldi	r24, 0xCA	; 202
    3282:	91 e0       	ldi	r25, 0x01	; 1
    3284:	22 e0       	ldi	r18, 0x02	; 2
    3286:	fc 01       	movw	r30, r24
    3288:	20 83       	st	Z, r18
    328a:	8d 81       	ldd	r24, Y+5	; 0x05
    328c:	9e 81       	ldd	r25, Y+6	; 0x06
    328e:	89 83       	std	Y+1, r24	; 0x01
    3290:	9a 83       	std	Y+2, r25	; 0x02
    3292:	89 81       	ldd	r24, Y+1	; 0x01
    3294:	9a 81       	ldd	r25, Y+2	; 0x02
    3296:	fc 01       	movw	r30, r24
    3298:	84 91       	lpm	r24, Z
    329a:	8b 83       	std	Y+3, r24	; 0x03
    329c:	8b 81       	ldd	r24, Y+3	; 0x03
    329e:	8c 83       	std	Y+4, r24	; 0x04
    32a0:	8a ec       	ldi	r24, 0xCA	; 202
    32a2:	91 e0       	ldi	r25, 0x01	; 1
    32a4:	fc 01       	movw	r30, r24
    32a6:	10 82       	st	Z, r1
    32a8:	8c 81       	ldd	r24, Y+4	; 0x04
    32aa:	26 96       	adiw	r28, 0x06	; 6
    32ac:	cd bf       	out	0x3d, r28	; 61
    32ae:	de bf       	out	0x3e, r29	; 62
    32b0:	df 91       	pop	r29
    32b2:	cf 91       	pop	r28
    32b4:	08 95       	ret
    32b6:	0f 93       	push	r16
    32b8:	1f 93       	push	r17
    32ba:	cf 93       	push	r28
    32bc:	df 93       	push	r29
    32be:	1f 92       	push	r1
    32c0:	1f 92       	push	r1
    32c2:	cd b7       	in	r28, 0x3d	; 61
    32c4:	de b7       	in	r29, 0x3e	; 62
    32c6:	89 83       	std	Y+1, r24	; 0x01
    32c8:	9a 83       	std	Y+2, r25	; 0x02
    32ca:	88 e0       	ldi	r24, 0x08	; 8
    32cc:	90 e0       	ldi	r25, 0x00	; 0
    32ce:	0e 94 38 19 	call	0x3270	;  0x3270
    32d2:	28 2f       	mov	r18, r24
    32d4:	89 81       	ldd	r24, Y+1	; 0x01
    32d6:	9a 81       	ldd	r25, Y+2	; 0x02
    32d8:	fc 01       	movw	r30, r24
    32da:	20 83       	st	Z, r18
    32dc:	89 81       	ldd	r24, Y+1	; 0x01
    32de:	9a 81       	ldd	r25, Y+2	; 0x02
    32e0:	8c 01       	movw	r16, r24
    32e2:	0f 5f       	subi	r16, 0xFF	; 255
    32e4:	1f 4f       	sbci	r17, 0xFF	; 255
    32e6:	89 e0       	ldi	r24, 0x09	; 9
    32e8:	90 e0       	ldi	r25, 0x00	; 0
    32ea:	0e 94 38 19 	call	0x3270	;  0x3270
    32ee:	f8 01       	movw	r30, r16
    32f0:	80 83       	st	Z, r24
    32f2:	89 81       	ldd	r24, Y+1	; 0x01
    32f4:	9a 81       	ldd	r25, Y+2	; 0x02
    32f6:	8c 01       	movw	r16, r24
    32f8:	0e 5f       	subi	r16, 0xFE	; 254
    32fa:	1f 4f       	sbci	r17, 0xFF	; 255
    32fc:	8a e0       	ldi	r24, 0x0A	; 10
    32fe:	90 e0       	ldi	r25, 0x00	; 0
    3300:	0e 94 38 19 	call	0x3270	;  0x3270
    3304:	f8 01       	movw	r30, r16
    3306:	80 83       	st	Z, r24
    3308:	89 81       	ldd	r24, Y+1	; 0x01
    330a:	9a 81       	ldd	r25, Y+2	; 0x02
    330c:	8c 01       	movw	r16, r24
    330e:	0d 5f       	subi	r16, 0xFD	; 253
    3310:	1f 4f       	sbci	r17, 0xFF	; 255
    3312:	8b e0       	ldi	r24, 0x0B	; 11
    3314:	90 e0       	ldi	r25, 0x00	; 0
    3316:	0e 94 38 19 	call	0x3270	;  0x3270
    331a:	f8 01       	movw	r30, r16
    331c:	80 83       	st	Z, r24
    331e:	89 81       	ldd	r24, Y+1	; 0x01
    3320:	9a 81       	ldd	r25, Y+2	; 0x02
    3322:	8c 01       	movw	r16, r24
    3324:	0c 5f       	subi	r16, 0xFC	; 252
    3326:	1f 4f       	sbci	r17, 0xFF	; 255
    3328:	8c e0       	ldi	r24, 0x0C	; 12
    332a:	90 e0       	ldi	r25, 0x00	; 0
    332c:	0e 94 38 19 	call	0x3270	;  0x3270
    3330:	f8 01       	movw	r30, r16
    3332:	80 83       	st	Z, r24
    3334:	89 81       	ldd	r24, Y+1	; 0x01
    3336:	9a 81       	ldd	r25, Y+2	; 0x02
    3338:	8c 01       	movw	r16, r24
    333a:	0b 5f       	subi	r16, 0xFB	; 251
    333c:	1f 4f       	sbci	r17, 0xFF	; 255
    333e:	8d e0       	ldi	r24, 0x0D	; 13
    3340:	90 e0       	ldi	r25, 0x00	; 0
    3342:	0e 94 38 19 	call	0x3270	;  0x3270
    3346:	f8 01       	movw	r30, r16
    3348:	80 83       	st	Z, r24
    334a:	89 81       	ldd	r24, Y+1	; 0x01
    334c:	9a 81       	ldd	r25, Y+2	; 0x02
    334e:	8c 01       	movw	r16, r24
    3350:	0a 5f       	subi	r16, 0xFA	; 250
    3352:	1f 4f       	sbci	r17, 0xFF	; 255
    3354:	80 e1       	ldi	r24, 0x10	; 16
    3356:	90 e0       	ldi	r25, 0x00	; 0
    3358:	0e 94 38 19 	call	0x3270	;  0x3270
    335c:	f8 01       	movw	r30, r16
    335e:	80 83       	st	Z, r24
    3360:	89 81       	ldd	r24, Y+1	; 0x01
    3362:	9a 81       	ldd	r25, Y+2	; 0x02
    3364:	8c 01       	movw	r16, r24
    3366:	09 5f       	subi	r16, 0xF9	; 249
    3368:	1f 4f       	sbci	r17, 0xFF	; 255
    336a:	82 e1       	ldi	r24, 0x12	; 18
    336c:	90 e0       	ldi	r25, 0x00	; 0
    336e:	0e 94 38 19 	call	0x3270	;  0x3270
    3372:	f8 01       	movw	r30, r16
    3374:	80 83       	st	Z, r24
    3376:	89 81       	ldd	r24, Y+1	; 0x01
    3378:	9a 81       	ldd	r25, Y+2	; 0x02
    337a:	8c 01       	movw	r16, r24
    337c:	08 5f       	subi	r16, 0xF8	; 248
    337e:	1f 4f       	sbci	r17, 0xFF	; 255
    3380:	83 e1       	ldi	r24, 0x13	; 19
    3382:	90 e0       	ldi	r25, 0x00	; 0
    3384:	0e 94 38 19 	call	0x3270	;  0x3270
    3388:	f8 01       	movw	r30, r16
    338a:	80 83       	st	Z, r24
    338c:	89 81       	ldd	r24, Y+1	; 0x01
    338e:	9a 81       	ldd	r25, Y+2	; 0x02
    3390:	8c 01       	movw	r16, r24
    3392:	07 5f       	subi	r16, 0xF7	; 247
    3394:	1f 4f       	sbci	r17, 0xFF	; 255
    3396:	84 e1       	ldi	r24, 0x14	; 20
    3398:	90 e0       	ldi	r25, 0x00	; 0
    339a:	0e 94 38 19 	call	0x3270	;  0x3270
    339e:	f8 01       	movw	r30, r16
    33a0:	80 83       	st	Z, r24
    33a2:	89 81       	ldd	r24, Y+1	; 0x01
    33a4:	9a 81       	ldd	r25, Y+2	; 0x02
    33a6:	8c 01       	movw	r16, r24
    33a8:	06 5f       	subi	r16, 0xF6	; 246
    33aa:	1f 4f       	sbci	r17, 0xFF	; 255
    33ac:	85 e1       	ldi	r24, 0x15	; 21
    33ae:	90 e0       	ldi	r25, 0x00	; 0
    33b0:	0e 94 38 19 	call	0x3270	;  0x3270
    33b4:	f8 01       	movw	r30, r16
    33b6:	80 83       	st	Z, r24
    33b8:	0f 90       	pop	r0
    33ba:	0f 90       	pop	r0
    33bc:	df 91       	pop	r29
    33be:	cf 91       	pop	r28
    33c0:	1f 91       	pop	r17
    33c2:	0f 91       	pop	r16
    33c4:	08 95       	ret
    33c6:	cf 93       	push	r28
    33c8:	df 93       	push	r29
    33ca:	1f 92       	push	r1
    33cc:	cd b7       	in	r28, 0x3d	; 61
    33ce:	de b7       	in	r29, 0x3e	; 62
    33d0:	89 83       	std	Y+1, r24	; 0x01
    33d2:	89 81       	ldd	r24, Y+1	; 0x01
    33d4:	88 2f       	mov	r24, r24
    33d6:	90 e0       	ldi	r25, 0x00	; 0
    33d8:	09 2e       	mov	r0, r25
    33da:	00 0c       	add	r0, r0
    33dc:	aa 0b       	sbc	r26, r26
    33de:	bb 0b       	sbc	r27, r27
    33e0:	40 e0       	ldi	r20, 0x00	; 0
    33e2:	50 e0       	ldi	r21, 0x00	; 0
    33e4:	2a e0       	ldi	r18, 0x0A	; 10
    33e6:	30 e0       	ldi	r19, 0x00	; 0
    33e8:	84 1b       	sub	r24, r20
    33ea:	95 0b       	sbc	r25, r21
    33ec:	28 17       	cp	r18, r24
    33ee:	39 07       	cpc	r19, r25
    33f0:	08 f4       	brcc	.+2      	;  0x33f4
    33f2:	3e c0       	rjmp	.+124    	;  0x3470
    33f4:	fc 01       	movw	r30, r24
    33f6:	88 27       	eor	r24, r24
    33f8:	e2 50       	subi	r30, 0x02	; 2
    33fa:	ff 4f       	sbci	r31, 0xFF	; 255
    33fc:	8f 4f       	sbci	r24, 0xFF	; 255
    33fe:	0c 94 0d 25 	jmp	0x4a1a	;  0x4a1a
    3402:	88 e0       	ldi	r24, 0x08	; 8
    3404:	90 e0       	ldi	r25, 0x00	; 0
    3406:	0e 94 38 19 	call	0x3270	;  0x3270
    340a:	32 c0       	rjmp	.+100    	;  0x3470
    340c:	89 e0       	ldi	r24, 0x09	; 9
    340e:	90 e0       	ldi	r25, 0x00	; 0
    3410:	0e 94 38 19 	call	0x3270	;  0x3270
    3414:	2d c0       	rjmp	.+90     	;  0x3470
    3416:	8a e0       	ldi	r24, 0x0A	; 10
    3418:	90 e0       	ldi	r25, 0x00	; 0
    341a:	0e 94 38 19 	call	0x3270	;  0x3270
    341e:	28 c0       	rjmp	.+80     	;  0x3470
    3420:	8b e0       	ldi	r24, 0x0B	; 11
    3422:	90 e0       	ldi	r25, 0x00	; 0
    3424:	0e 94 38 19 	call	0x3270	;  0x3270
    3428:	23 c0       	rjmp	.+70     	;  0x3470
    342a:	8c e0       	ldi	r24, 0x0C	; 12
    342c:	90 e0       	ldi	r25, 0x00	; 0
    342e:	0e 94 38 19 	call	0x3270	;  0x3270
    3432:	1e c0       	rjmp	.+60     	;  0x3470
    3434:	8d e0       	ldi	r24, 0x0D	; 13
    3436:	90 e0       	ldi	r25, 0x00	; 0
    3438:	0e 94 38 19 	call	0x3270	;  0x3270
    343c:	19 c0       	rjmp	.+50     	;  0x3470
    343e:	80 e1       	ldi	r24, 0x10	; 16
    3440:	90 e0       	ldi	r25, 0x00	; 0
    3442:	0e 94 38 19 	call	0x3270	;  0x3270
    3446:	14 c0       	rjmp	.+40     	;  0x3470
    3448:	82 e1       	ldi	r24, 0x12	; 18
    344a:	90 e0       	ldi	r25, 0x00	; 0
    344c:	0e 94 38 19 	call	0x3270	;  0x3270
    3450:	0f c0       	rjmp	.+30     	;  0x3470
    3452:	83 e1       	ldi	r24, 0x13	; 19
    3454:	90 e0       	ldi	r25, 0x00	; 0
    3456:	0e 94 38 19 	call	0x3270	;  0x3270
    345a:	0a c0       	rjmp	.+20     	;  0x3470
    345c:	84 e1       	ldi	r24, 0x14	; 20
    345e:	90 e0       	ldi	r25, 0x00	; 0
    3460:	0e 94 38 19 	call	0x3270	;  0x3270
    3464:	05 c0       	rjmp	.+10     	;  0x3470
    3466:	85 e1       	ldi	r24, 0x15	; 21
    3468:	90 e0       	ldi	r25, 0x00	; 0
    346a:	0e 94 38 19 	call	0x3270	;  0x3270
    346e:	00 c0       	rjmp	.+0      	;  0x3470
    3470:	0f 90       	pop	r0
    3472:	df 91       	pop	r29
    3474:	cf 91       	pop	r28
    3476:	08 95       	ret
    3478:	cf 93       	push	r28
    347a:	df 93       	push	r29
    347c:	cd b7       	in	r28, 0x3d	; 61
    347e:	de b7       	in	r29, 0x3e	; 62
    3480:	8f e0       	ldi	r24, 0x0F	; 15
    3482:	0e 94 c8 1c 	call	0x3990	;  0x3990
    3486:	80 e0       	ldi	r24, 0x00	; 0
    3488:	90 e0       	ldi	r25, 0x00	; 0
    348a:	0e 94 34 1b 	call	0x3668	;  0x3668
    348e:	80 e0       	ldi	r24, 0x00	; 0
    3490:	0e 94 88 1b 	call	0x3710	;  0x3710
    3494:	80 e0       	ldi	r24, 0x00	; 0
    3496:	0e 94 a8 1b 	call	0x3750	;  0x3750
    349a:	80 e0       	ldi	r24, 0x00	; 0
    349c:	90 e0       	ldi	r25, 0x00	; 0
    349e:	0e 94 c8 1b 	call	0x3790	;  0x3790
    34a2:	80 e1       	ldi	r24, 0x10	; 16
    34a4:	90 e0       	ldi	r25, 0x00	; 0
    34a6:	0e 94 e8 1b 	call	0x37d0	;  0x37d0
    34aa:	81 e0       	ldi	r24, 0x01	; 1
    34ac:	0e 94 08 1c 	call	0x3810	;  0x3810
    34b0:	81 e0       	ldi	r24, 0x01	; 1
    34b2:	0e 94 28 1c 	call	0x3850	;  0x3850
    34b6:	80 e0       	ldi	r24, 0x00	; 0
    34b8:	90 e0       	ldi	r25, 0x00	; 0
    34ba:	0e 94 48 1c 	call	0x3890	;  0x3890
    34be:	80 e0       	ldi	r24, 0x00	; 0
    34c0:	90 e0       	ldi	r25, 0x00	; 0
    34c2:	0e 94 68 1c 	call	0x38d0	;  0x38d0
    34c6:	80 e0       	ldi	r24, 0x00	; 0
    34c8:	90 e0       	ldi	r25, 0x00	; 0
    34ca:	0e 94 88 1c 	call	0x3910	;  0x3910
    34ce:	84 e0       	ldi	r24, 0x04	; 4
    34d0:	90 e0       	ldi	r25, 0x00	; 0
    34d2:	0e 94 a8 1c 	call	0x3950	;  0x3950
    34d6:	60 e0       	ldi	r22, 0x00	; 0
    34d8:	70 e0       	ldi	r23, 0x00	; 0
    34da:	80 e2       	ldi	r24, 0x20	; 32
    34dc:	92 e0       	ldi	r25, 0x02	; 2
    34de:	0e 94 dc 1c 	call	0x39b8	;  0x39b8
    34e2:	61 e0       	ldi	r22, 0x01	; 1
    34e4:	70 e0       	ldi	r23, 0x00	; 0
    34e6:	80 e2       	ldi	r24, 0x20	; 32
    34e8:	92 e0       	ldi	r25, 0x02	; 2
    34ea:	0e 94 01 1d 	call	0x3a02	;  0x3a02
    34ee:	68 e0       	ldi	r22, 0x08	; 8
    34f0:	70 e0       	ldi	r23, 0x00	; 0
    34f2:	80 e2       	ldi	r24, 0x20	; 32
    34f4:	92 e0       	ldi	r25, 0x02	; 2
    34f6:	0e 94 26 1d 	call	0x3a4c	;  0x3a4c
    34fa:	60 e0       	ldi	r22, 0x00	; 0
    34fc:	70 e0       	ldi	r23, 0x00	; 0
    34fe:	80 e2       	ldi	r24, 0x20	; 32
    3500:	92 e0       	ldi	r25, 0x02	; 2
    3502:	0e 94 4b 1d 	call	0x3a96	;  0x3a96
    3506:	df 91       	pop	r29
    3508:	cf 91       	pop	r28
    350a:	08 95       	ret
    350c:	cf 93       	push	r28
    350e:	df 93       	push	r29
    3510:	1f 92       	push	r1
    3512:	1f 92       	push	r1
    3514:	cd b7       	in	r28, 0x3d	; 61
    3516:	de b7       	in	r29, 0x3e	; 62
    3518:	89 83       	std	Y+1, r24	; 0x01
    351a:	9a 83       	std	Y+2, r25	; 0x02
    351c:	80 e0       	ldi	r24, 0x00	; 0
    351e:	92 e0       	ldi	r25, 0x02	; 2
    3520:	29 81       	ldd	r18, Y+1	; 0x01
    3522:	3a 81       	ldd	r19, Y+2	; 0x02
    3524:	fc 01       	movw	r30, r24
    3526:	24 87       	std	Z+12, r18	; 0x0c
    3528:	35 87       	std	Z+13, r19	; 0x0d
    352a:	0f 90       	pop	r0
    352c:	0f 90       	pop	r0
    352e:	df 91       	pop	r29
    3530:	cf 91       	pop	r28
    3532:	08 95       	ret
    3534:	cf 93       	push	r28
    3536:	df 93       	push	r29
    3538:	00 d0       	rcall	.+0      	;  0x353a
    353a:	cd b7       	in	r28, 0x3d	; 61
    353c:	de b7       	in	r29, 0x3e	; 62
    353e:	80 e0       	ldi	r24, 0x00	; 0
    3540:	96 e0       	ldi	r25, 0x06	; 6
    3542:	2f e7       	ldi	r18, 0x7F	; 127
    3544:	fc 01       	movw	r30, r24
    3546:	22 83       	std	Z+2, r18	; 0x02
    3548:	81 e0       	ldi	r24, 0x01	; 1
    354a:	0e 94 68 1b 	call	0x36d0	;  0x36d0
    354e:	19 82       	std	Y+1, r1	; 0x01
    3550:	1a 82       	std	Y+2, r1	; 0x02
    3552:	5d c0       	rjmp	.+186    	;  0x360e
    3554:	60 e0       	ldi	r22, 0x00	; 0
    3556:	70 e0       	ldi	r23, 0x00	; 0
    3558:	80 e2       	ldi	r24, 0x20	; 32
    355a:	92 e0       	ldi	r25, 0x02	; 2
    355c:	0e 94 26 1d 	call	0x3a4c	;  0x3a4c
    3560:	0e 94 15 1b 	call	0x362a	;  0x362a
    3564:	8b 83       	std	Y+3, r24	; 0x03
    3566:	68 e0       	ldi	r22, 0x08	; 8
    3568:	70 e0       	ldi	r23, 0x00	; 0
    356a:	80 e2       	ldi	r24, 0x20	; 32
    356c:	92 e0       	ldi	r25, 0x02	; 2
    356e:	0e 94 26 1d 	call	0x3a4c	;  0x3a4c
    3572:	0e 94 15 1b 	call	0x362a	;  0x362a
    3576:	98 2f       	mov	r25, r24
    3578:	8b 81       	ldd	r24, Y+3	; 0x03
    357a:	89 27       	eor	r24, r25
    357c:	8b 83       	std	Y+3, r24	; 0x03
    357e:	60 e1       	ldi	r22, 0x10	; 16
    3580:	70 e0       	ldi	r23, 0x00	; 0
    3582:	80 e2       	ldi	r24, 0x20	; 32
    3584:	92 e0       	ldi	r25, 0x02	; 2
    3586:	0e 94 26 1d 	call	0x3a4c	;  0x3a4c
    358a:	0e 94 15 1b 	call	0x362a	;  0x362a
    358e:	98 2f       	mov	r25, r24
    3590:	8b 81       	ldd	r24, Y+3	; 0x03
    3592:	89 27       	eor	r24, r25
    3594:	8b 83       	std	Y+3, r24	; 0x03
    3596:	68 e1       	ldi	r22, 0x18	; 24
    3598:	70 e0       	ldi	r23, 0x00	; 0
    359a:	80 e2       	ldi	r24, 0x20	; 32
    359c:	92 e0       	ldi	r25, 0x02	; 2
    359e:	0e 94 26 1d 	call	0x3a4c	;  0x3a4c
    35a2:	0e 94 15 1b 	call	0x362a	;  0x362a
    35a6:	98 2f       	mov	r25, r24
    35a8:	8b 81       	ldd	r24, Y+3	; 0x03
    35aa:	89 27       	eor	r24, r25
    35ac:	8b 83       	std	Y+3, r24	; 0x03
    35ae:	60 e2       	ldi	r22, 0x20	; 32
    35b0:	70 e0       	ldi	r23, 0x00	; 0
    35b2:	80 e2       	ldi	r24, 0x20	; 32
    35b4:	92 e0       	ldi	r25, 0x02	; 2
    35b6:	0e 94 26 1d 	call	0x3a4c	;  0x3a4c
    35ba:	0e 94 15 1b 	call	0x362a	;  0x362a
    35be:	98 2f       	mov	r25, r24
    35c0:	8b 81       	ldd	r24, Y+3	; 0x03
    35c2:	89 27       	eor	r24, r25
    35c4:	8b 83       	std	Y+3, r24	; 0x03
    35c6:	68 e2       	ldi	r22, 0x28	; 40
    35c8:	70 e0       	ldi	r23, 0x00	; 0
    35ca:	80 e2       	ldi	r24, 0x20	; 32
    35cc:	92 e0       	ldi	r25, 0x02	; 2
    35ce:	0e 94 26 1d 	call	0x3a4c	;  0x3a4c
    35d2:	0e 94 15 1b 	call	0x362a	;  0x362a
    35d6:	98 2f       	mov	r25, r24
    35d8:	8b 81       	ldd	r24, Y+3	; 0x03
    35da:	89 27       	eor	r24, r25
    35dc:	8b 83       	std	Y+3, r24	; 0x03
    35de:	60 e3       	ldi	r22, 0x30	; 48
    35e0:	70 e0       	ldi	r23, 0x00	; 0
    35e2:	80 e2       	ldi	r24, 0x20	; 32
    35e4:	92 e0       	ldi	r25, 0x02	; 2
    35e6:	0e 94 26 1d 	call	0x3a4c	;  0x3a4c
    35ea:	0e 94 15 1b 	call	0x362a	;  0x362a
    35ee:	98 2f       	mov	r25, r24
    35f0:	8b 81       	ldd	r24, Y+3	; 0x03
    35f2:	89 27       	eor	r24, r25
    35f4:	8b 83       	std	Y+3, r24	; 0x03
    35f6:	89 81       	ldd	r24, Y+1	; 0x01
    35f8:	88 0f       	add	r24, r24
    35fa:	89 83       	std	Y+1, r24	; 0x01
    35fc:	8b 81       	ldd	r24, Y+3	; 0x03
    35fe:	98 2f       	mov	r25, r24
    3600:	91 70       	andi	r25, 0x01	; 1
    3602:	89 81       	ldd	r24, Y+1	; 0x01
    3604:	89 2b       	or	r24, r25
    3606:	89 83       	std	Y+1, r24	; 0x01
    3608:	8a 81       	ldd	r24, Y+2	; 0x02
    360a:	8f 5f       	subi	r24, 0xFF	; 255
    360c:	8a 83       	std	Y+2, r24	; 0x02
    360e:	8a 81       	ldd	r24, Y+2	; 0x02
    3610:	88 30       	cpi	r24, 0x08	; 8
    3612:	08 f4       	brcc	.+2      	;  0x3616
    3614:	9f cf       	rjmp	.-194    	;  0x3554
    3616:	80 e0       	ldi	r24, 0x00	; 0
    3618:	0e 94 68 1b 	call	0x36d0	;  0x36d0
    361c:	89 81       	ldd	r24, Y+1	; 0x01
    361e:	23 96       	adiw	r28, 0x03	; 3
    3620:	cd bf       	out	0x3d, r28	; 61
    3622:	de bf       	out	0x3e, r29	; 62
    3624:	df 91       	pop	r29
    3626:	cf 91       	pop	r28
    3628:	08 95       	ret
    362a:	cf 93       	push	r28
    362c:	df 93       	push	r29
    362e:	cd b7       	in	r28, 0x3d	; 61
    3630:	de b7       	in	r29, 0x3e	; 62
    3632:	80 e0       	ldi	r24, 0x00	; 0
    3634:	92 e0       	ldi	r25, 0x02	; 2
    3636:	21 e0       	ldi	r18, 0x01	; 1
    3638:	fc 01       	movw	r30, r24
    363a:	26 83       	std	Z+6, r18	; 0x06
    363c:	84 e0       	ldi	r24, 0x04	; 4
    363e:	0e 94 54 1b 	call	0x36a8	;  0x36a8
    3642:	00 00       	nop
    3644:	80 e0       	ldi	r24, 0x00	; 0
    3646:	92 e0       	ldi	r25, 0x02	; 2
    3648:	fc 01       	movw	r30, r24
    364a:	86 81       	ldd	r24, Z+6	; 0x06
    364c:	88 2f       	mov	r24, r24
    364e:	90 e0       	ldi	r25, 0x00	; 0
    3650:	81 70       	andi	r24, 0x01	; 1
    3652:	99 27       	eor	r25, r25
    3654:	89 2b       	or	r24, r25
    3656:	b1 f3       	breq	.-20     	;  0x3644
    3658:	80 e0       	ldi	r24, 0x00	; 0
    365a:	92 e0       	ldi	r25, 0x02	; 2
    365c:	fc 01       	movw	r30, r24
    365e:	80 89       	ldd	r24, Z+16	; 0x10
    3660:	91 89       	ldd	r25, Z+17	; 0x11
    3662:	df 91       	pop	r29
    3664:	cf 91       	pop	r28
    3666:	08 95       	ret
    3668:	cf 93       	push	r28
    366a:	df 93       	push	r29
    366c:	1f 92       	push	r1
    366e:	1f 92       	push	r1
    3670:	cd b7       	in	r28, 0x3d	; 61
    3672:	de b7       	in	r29, 0x3e	; 62
    3674:	89 83       	std	Y+1, r24	; 0x01
    3676:	9a 83       	std	Y+2, r25	; 0x02
    3678:	80 e0       	ldi	r24, 0x00	; 0
    367a:	92 e0       	ldi	r25, 0x02	; 2
    367c:	20 e0       	ldi	r18, 0x00	; 0
    367e:	32 e0       	ldi	r19, 0x02	; 2
    3680:	f9 01       	movw	r30, r18
    3682:	20 81       	ld	r18, Z
    3684:	2f 73       	andi	r18, 0x3F	; 63
    3686:	fc 01       	movw	r30, r24
    3688:	20 83       	st	Z, r18
    368a:	80 e0       	ldi	r24, 0x00	; 0
    368c:	92 e0       	ldi	r25, 0x02	; 2
    368e:	20 e0       	ldi	r18, 0x00	; 0
    3690:	32 e0       	ldi	r19, 0x02	; 2
    3692:	f9 01       	movw	r30, r18
    3694:	30 81       	ld	r19, Z
    3696:	29 81       	ldd	r18, Y+1	; 0x01
    3698:	23 2b       	or	r18, r19
    369a:	fc 01       	movw	r30, r24
    369c:	20 83       	st	Z, r18
    369e:	0f 90       	pop	r0
    36a0:	0f 90       	pop	r0
    36a2:	df 91       	pop	r29
    36a4:	cf 91       	pop	r28
    36a6:	08 95       	ret
    36a8:	cf 93       	push	r28
    36aa:	df 93       	push	r29
    36ac:	1f 92       	push	r1
    36ae:	cd b7       	in	r28, 0x3d	; 61
    36b0:	de b7       	in	r29, 0x3e	; 62
    36b2:	89 83       	std	Y+1, r24	; 0x01
    36b4:	80 e0       	ldi	r24, 0x00	; 0
    36b6:	92 e0       	ldi	r25, 0x02	; 2
    36b8:	20 e0       	ldi	r18, 0x00	; 0
    36ba:	32 e0       	ldi	r19, 0x02	; 2
    36bc:	f9 01       	movw	r30, r18
    36be:	30 81       	ld	r19, Z
    36c0:	29 81       	ldd	r18, Y+1	; 0x01
    36c2:	23 2b       	or	r18, r19
    36c4:	fc 01       	movw	r30, r24
    36c6:	20 83       	st	Z, r18
    36c8:	0f 90       	pop	r0
    36ca:	df 91       	pop	r29
    36cc:	cf 91       	pop	r28
    36ce:	08 95       	ret
    36d0:	cf 93       	push	r28
    36d2:	df 93       	push	r29
    36d4:	1f 92       	push	r1
    36d6:	cd b7       	in	r28, 0x3d	; 61
    36d8:	de b7       	in	r29, 0x3e	; 62
    36da:	89 83       	std	Y+1, r24	; 0x01
    36dc:	89 81       	ldd	r24, Y+1	; 0x01
    36de:	88 23       	and	r24, r24
    36e0:	51 f0       	breq	.+20     	;  0x36f6
    36e2:	80 e0       	ldi	r24, 0x00	; 0
    36e4:	92 e0       	ldi	r25, 0x02	; 2
    36e6:	20 e0       	ldi	r18, 0x00	; 0
    36e8:	32 e0       	ldi	r19, 0x02	; 2
    36ea:	f9 01       	movw	r30, r18
    36ec:	20 81       	ld	r18, Z
    36ee:	21 60       	ori	r18, 0x01	; 1
    36f0:	fc 01       	movw	r30, r24
    36f2:	20 83       	st	Z, r18
    36f4:	09 c0       	rjmp	.+18     	;  0x3708
    36f6:	80 e0       	ldi	r24, 0x00	; 0
    36f8:	92 e0       	ldi	r25, 0x02	; 2
    36fa:	20 e0       	ldi	r18, 0x00	; 0
    36fc:	32 e0       	ldi	r19, 0x02	; 2
    36fe:	f9 01       	movw	r30, r18
    3700:	20 81       	ld	r18, Z
    3702:	2e 7f       	andi	r18, 0xFE	; 254
    3704:	fc 01       	movw	r30, r24
    3706:	20 83       	st	Z, r18
    3708:	0f 90       	pop	r0
    370a:	df 91       	pop	r29
    370c:	cf 91       	pop	r28
    370e:	08 95       	ret
    3710:	cf 93       	push	r28
    3712:	df 93       	push	r29
    3714:	1f 92       	push	r1
    3716:	cd b7       	in	r28, 0x3d	; 61
    3718:	de b7       	in	r29, 0x3e	; 62
    371a:	89 83       	std	Y+1, r24	; 0x01
    371c:	89 81       	ldd	r24, Y+1	; 0x01
    371e:	88 23       	and	r24, r24
    3720:	51 f0       	breq	.+20     	;  0x3736
    3722:	80 e0       	ldi	r24, 0x00	; 0
    3724:	92 e0       	ldi	r25, 0x02	; 2
    3726:	20 e0       	ldi	r18, 0x00	; 0
    3728:	32 e0       	ldi	r19, 0x02	; 2
    372a:	f9 01       	movw	r30, r18
    372c:	21 81       	ldd	r18, Z+1	; 0x01
    372e:	20 61       	ori	r18, 0x10	; 16
    3730:	fc 01       	movw	r30, r24
    3732:	21 83       	std	Z+1, r18	; 0x01
    3734:	09 c0       	rjmp	.+18     	;  0x3748
    3736:	80 e0       	ldi	r24, 0x00	; 0
    3738:	92 e0       	ldi	r25, 0x02	; 2
    373a:	20 e0       	ldi	r18, 0x00	; 0
    373c:	32 e0       	ldi	r19, 0x02	; 2
    373e:	f9 01       	movw	r30, r18
    3740:	21 81       	ldd	r18, Z+1	; 0x01
    3742:	2f 7e       	andi	r18, 0xEF	; 239
    3744:	fc 01       	movw	r30, r24
    3746:	21 83       	std	Z+1, r18	; 0x01
    3748:	0f 90       	pop	r0
    374a:	df 91       	pop	r29
    374c:	cf 91       	pop	r28
    374e:	08 95       	ret
    3750:	cf 93       	push	r28
    3752:	df 93       	push	r29
    3754:	1f 92       	push	r1
    3756:	cd b7       	in	r28, 0x3d	; 61
    3758:	de b7       	in	r29, 0x3e	; 62
    375a:	89 83       	std	Y+1, r24	; 0x01
    375c:	89 81       	ldd	r24, Y+1	; 0x01
    375e:	88 23       	and	r24, r24
    3760:	51 f0       	breq	.+20     	;  0x3776
    3762:	80 e0       	ldi	r24, 0x00	; 0
    3764:	92 e0       	ldi	r25, 0x02	; 2
    3766:	20 e0       	ldi	r18, 0x00	; 0
    3768:	32 e0       	ldi	r19, 0x02	; 2
    376a:	f9 01       	movw	r30, r18
    376c:	21 81       	ldd	r18, Z+1	; 0x01
    376e:	28 60       	ori	r18, 0x08	; 8
    3770:	fc 01       	movw	r30, r24
    3772:	21 83       	std	Z+1, r18	; 0x01
    3774:	09 c0       	rjmp	.+18     	;  0x3788
    3776:	80 e0       	ldi	r24, 0x00	; 0
    3778:	92 e0       	ldi	r25, 0x02	; 2
    377a:	20 e0       	ldi	r18, 0x00	; 0
    377c:	32 e0       	ldi	r19, 0x02	; 2
    377e:	f9 01       	movw	r30, r18
    3780:	21 81       	ldd	r18, Z+1	; 0x01
    3782:	27 7f       	andi	r18, 0xF7	; 247
    3784:	fc 01       	movw	r30, r24
    3786:	21 83       	std	Z+1, r18	; 0x01
    3788:	0f 90       	pop	r0
    378a:	df 91       	pop	r29
    378c:	cf 91       	pop	r28
    378e:	08 95       	ret
    3790:	cf 93       	push	r28
    3792:	df 93       	push	r29
    3794:	1f 92       	push	r1
    3796:	1f 92       	push	r1
    3798:	cd b7       	in	r28, 0x3d	; 61
    379a:	de b7       	in	r29, 0x3e	; 62
    379c:	89 83       	std	Y+1, r24	; 0x01
    379e:	9a 83       	std	Y+2, r25	; 0x02
    37a0:	80 e0       	ldi	r24, 0x00	; 0
    37a2:	92 e0       	ldi	r25, 0x02	; 2
    37a4:	20 e0       	ldi	r18, 0x00	; 0
    37a6:	32 e0       	ldi	r19, 0x02	; 2
    37a8:	f9 01       	movw	r30, r18
    37aa:	21 81       	ldd	r18, Z+1	; 0x01
    37ac:	29 7f       	andi	r18, 0xF9	; 249
    37ae:	fc 01       	movw	r30, r24
    37b0:	21 83       	std	Z+1, r18	; 0x01
    37b2:	80 e0       	ldi	r24, 0x00	; 0
    37b4:	92 e0       	ldi	r25, 0x02	; 2
    37b6:	20 e0       	ldi	r18, 0x00	; 0
    37b8:	32 e0       	ldi	r19, 0x02	; 2
    37ba:	f9 01       	movw	r30, r18
    37bc:	31 81       	ldd	r19, Z+1	; 0x01
    37be:	29 81       	ldd	r18, Y+1	; 0x01
    37c0:	23 2b       	or	r18, r19
    37c2:	fc 01       	movw	r30, r24
    37c4:	21 83       	std	Z+1, r18	; 0x01
    37c6:	0f 90       	pop	r0
    37c8:	0f 90       	pop	r0
    37ca:	df 91       	pop	r29
    37cc:	cf 91       	pop	r28
    37ce:	08 95       	ret
    37d0:	cf 93       	push	r28
    37d2:	df 93       	push	r29
    37d4:	1f 92       	push	r1
    37d6:	1f 92       	push	r1
    37d8:	cd b7       	in	r28, 0x3d	; 61
    37da:	de b7       	in	r29, 0x3e	; 62
    37dc:	89 83       	std	Y+1, r24	; 0x01
    37de:	9a 83       	std	Y+2, r25	; 0x02
    37e0:	80 e0       	ldi	r24, 0x00	; 0
    37e2:	92 e0       	ldi	r25, 0x02	; 2
    37e4:	20 e0       	ldi	r18, 0x00	; 0
    37e6:	32 e0       	ldi	r19, 0x02	; 2
    37e8:	f9 01       	movw	r30, r18
    37ea:	22 81       	ldd	r18, Z+2	; 0x02
    37ec:	2f 78       	andi	r18, 0x8F	; 143
    37ee:	fc 01       	movw	r30, r24
    37f0:	22 83       	std	Z+2, r18	; 0x02
    37f2:	80 e0       	ldi	r24, 0x00	; 0
    37f4:	92 e0       	ldi	r25, 0x02	; 2
    37f6:	20 e0       	ldi	r18, 0x00	; 0
    37f8:	32 e0       	ldi	r19, 0x02	; 2
    37fa:	f9 01       	movw	r30, r18
    37fc:	32 81       	ldd	r19, Z+2	; 0x02
    37fe:	29 81       	ldd	r18, Y+1	; 0x01
    3800:	23 2b       	or	r18, r19
    3802:	fc 01       	movw	r30, r24
    3804:	22 83       	std	Z+2, r18	; 0x02
    3806:	0f 90       	pop	r0
    3808:	0f 90       	pop	r0
    380a:	df 91       	pop	r29
    380c:	cf 91       	pop	r28
    380e:	08 95       	ret
    3810:	cf 93       	push	r28
    3812:	df 93       	push	r29
    3814:	1f 92       	push	r1
    3816:	cd b7       	in	r28, 0x3d	; 61
    3818:	de b7       	in	r29, 0x3e	; 62
    381a:	89 83       	std	Y+1, r24	; 0x01
    381c:	89 81       	ldd	r24, Y+1	; 0x01
    381e:	88 23       	and	r24, r24
    3820:	51 f0       	breq	.+20     	;  0x3836
    3822:	80 e0       	ldi	r24, 0x00	; 0
    3824:	92 e0       	ldi	r25, 0x02	; 2
    3826:	20 e0       	ldi	r18, 0x00	; 0
    3828:	32 e0       	ldi	r19, 0x02	; 2
    382a:	f9 01       	movw	r30, r18
    382c:	22 81       	ldd	r18, Z+2	; 0x02
    382e:	22 60       	ori	r18, 0x02	; 2
    3830:	fc 01       	movw	r30, r24
    3832:	22 83       	std	Z+2, r18	; 0x02
    3834:	09 c0       	rjmp	.+18     	;  0x3848
    3836:	80 e0       	ldi	r24, 0x00	; 0
    3838:	92 e0       	ldi	r25, 0x02	; 2
    383a:	20 e0       	ldi	r18, 0x00	; 0
    383c:	32 e0       	ldi	r19, 0x02	; 2
    383e:	f9 01       	movw	r30, r18
    3840:	22 81       	ldd	r18, Z+2	; 0x02
    3842:	2d 7f       	andi	r18, 0xFD	; 253
    3844:	fc 01       	movw	r30, r24
    3846:	22 83       	std	Z+2, r18	; 0x02
    3848:	0f 90       	pop	r0
    384a:	df 91       	pop	r29
    384c:	cf 91       	pop	r28
    384e:	08 95       	ret
    3850:	cf 93       	push	r28
    3852:	df 93       	push	r29
    3854:	1f 92       	push	r1
    3856:	cd b7       	in	r28, 0x3d	; 61
    3858:	de b7       	in	r29, 0x3e	; 62
    385a:	89 83       	std	Y+1, r24	; 0x01
    385c:	89 81       	ldd	r24, Y+1	; 0x01
    385e:	88 23       	and	r24, r24
    3860:	51 f0       	breq	.+20     	;  0x3876
    3862:	80 e0       	ldi	r24, 0x00	; 0
    3864:	92 e0       	ldi	r25, 0x02	; 2
    3866:	20 e0       	ldi	r18, 0x00	; 0
    3868:	32 e0       	ldi	r19, 0x02	; 2
    386a:	f9 01       	movw	r30, r18
    386c:	22 81       	ldd	r18, Z+2	; 0x02
    386e:	21 60       	ori	r18, 0x01	; 1
    3870:	fc 01       	movw	r30, r24
    3872:	22 83       	std	Z+2, r18	; 0x02
    3874:	09 c0       	rjmp	.+18     	;  0x3888
    3876:	80 e0       	ldi	r24, 0x00	; 0
    3878:	92 e0       	ldi	r25, 0x02	; 2
    387a:	20 e0       	ldi	r18, 0x00	; 0
    387c:	32 e0       	ldi	r19, 0x02	; 2
    387e:	f9 01       	movw	r30, r18
    3880:	22 81       	ldd	r18, Z+2	; 0x02
    3882:	2e 7f       	andi	r18, 0xFE	; 254
    3884:	fc 01       	movw	r30, r24
    3886:	22 83       	std	Z+2, r18	; 0x02
    3888:	0f 90       	pop	r0
    388a:	df 91       	pop	r29
    388c:	cf 91       	pop	r28
    388e:	08 95       	ret
    3890:	cf 93       	push	r28
    3892:	df 93       	push	r29
    3894:	1f 92       	push	r1
    3896:	1f 92       	push	r1
    3898:	cd b7       	in	r28, 0x3d	; 61
    389a:	de b7       	in	r29, 0x3e	; 62
    389c:	89 83       	std	Y+1, r24	; 0x01
    389e:	9a 83       	std	Y+2, r25	; 0x02
    38a0:	80 e0       	ldi	r24, 0x00	; 0
    38a2:	92 e0       	ldi	r25, 0x02	; 2
    38a4:	20 e0       	ldi	r18, 0x00	; 0
    38a6:	32 e0       	ldi	r19, 0x02	; 2
    38a8:	f9 01       	movw	r30, r18
    38aa:	23 81       	ldd	r18, Z+3	; 0x03
    38ac:	2f 73       	andi	r18, 0x3F	; 63
    38ae:	fc 01       	movw	r30, r24
    38b0:	23 83       	std	Z+3, r18	; 0x03
    38b2:	80 e0       	ldi	r24, 0x00	; 0
    38b4:	92 e0       	ldi	r25, 0x02	; 2
    38b6:	20 e0       	ldi	r18, 0x00	; 0
    38b8:	32 e0       	ldi	r19, 0x02	; 2
    38ba:	f9 01       	movw	r30, r18
    38bc:	33 81       	ldd	r19, Z+3	; 0x03
    38be:	29 81       	ldd	r18, Y+1	; 0x01
    38c0:	23 2b       	or	r18, r19
    38c2:	fc 01       	movw	r30, r24
    38c4:	23 83       	std	Z+3, r18	; 0x03
    38c6:	0f 90       	pop	r0
    38c8:	0f 90       	pop	r0
    38ca:	df 91       	pop	r29
    38cc:	cf 91       	pop	r28
    38ce:	08 95       	ret
    38d0:	cf 93       	push	r28
    38d2:	df 93       	push	r29
    38d4:	1f 92       	push	r1
    38d6:	1f 92       	push	r1
    38d8:	cd b7       	in	r28, 0x3d	; 61
    38da:	de b7       	in	r29, 0x3e	; 62
    38dc:	89 83       	std	Y+1, r24	; 0x01
    38de:	9a 83       	std	Y+2, r25	; 0x02
    38e0:	80 e0       	ldi	r24, 0x00	; 0
    38e2:	92 e0       	ldi	r25, 0x02	; 2
    38e4:	20 e0       	ldi	r18, 0x00	; 0
    38e6:	32 e0       	ldi	r19, 0x02	; 2
    38e8:	f9 01       	movw	r30, r18
    38ea:	23 81       	ldd	r18, Z+3	; 0x03
    38ec:	27 7c       	andi	r18, 0xC7	; 199
    38ee:	fc 01       	movw	r30, r24
    38f0:	23 83       	std	Z+3, r18	; 0x03
    38f2:	80 e0       	ldi	r24, 0x00	; 0
    38f4:	92 e0       	ldi	r25, 0x02	; 2
    38f6:	20 e0       	ldi	r18, 0x00	; 0
    38f8:	32 e0       	ldi	r19, 0x02	; 2
    38fa:	f9 01       	movw	r30, r18
    38fc:	33 81       	ldd	r19, Z+3	; 0x03
    38fe:	29 81       	ldd	r18, Y+1	; 0x01
    3900:	23 2b       	or	r18, r19
    3902:	fc 01       	movw	r30, r24
    3904:	23 83       	std	Z+3, r18	; 0x03
    3906:	0f 90       	pop	r0
    3908:	0f 90       	pop	r0
    390a:	df 91       	pop	r29
    390c:	cf 91       	pop	r28
    390e:	08 95       	ret
    3910:	cf 93       	push	r28
    3912:	df 93       	push	r29
    3914:	1f 92       	push	r1
    3916:	1f 92       	push	r1
    3918:	cd b7       	in	r28, 0x3d	; 61
    391a:	de b7       	in	r29, 0x3e	; 62
    391c:	89 83       	std	Y+1, r24	; 0x01
    391e:	9a 83       	std	Y+2, r25	; 0x02
    3920:	80 e0       	ldi	r24, 0x00	; 0
    3922:	92 e0       	ldi	r25, 0x02	; 2
    3924:	20 e0       	ldi	r18, 0x00	; 0
    3926:	32 e0       	ldi	r19, 0x02	; 2
    3928:	f9 01       	movw	r30, r18
    392a:	23 81       	ldd	r18, Z+3	; 0x03
    392c:	28 7f       	andi	r18, 0xF8	; 248
    392e:	fc 01       	movw	r30, r24
    3930:	23 83       	std	Z+3, r18	; 0x03
    3932:	80 e0       	ldi	r24, 0x00	; 0
    3934:	92 e0       	ldi	r25, 0x02	; 2
    3936:	20 e0       	ldi	r18, 0x00	; 0
    3938:	32 e0       	ldi	r19, 0x02	; 2
    393a:	f9 01       	movw	r30, r18
    393c:	33 81       	ldd	r19, Z+3	; 0x03
    393e:	29 81       	ldd	r18, Y+1	; 0x01
    3940:	23 2b       	or	r18, r19
    3942:	fc 01       	movw	r30, r24
    3944:	23 83       	std	Z+3, r18	; 0x03
    3946:	0f 90       	pop	r0
    3948:	0f 90       	pop	r0
    394a:	df 91       	pop	r29
    394c:	cf 91       	pop	r28
    394e:	08 95       	ret
    3950:	cf 93       	push	r28
    3952:	df 93       	push	r29
    3954:	1f 92       	push	r1
    3956:	1f 92       	push	r1
    3958:	cd b7       	in	r28, 0x3d	; 61
    395a:	de b7       	in	r29, 0x3e	; 62
    395c:	89 83       	std	Y+1, r24	; 0x01
    395e:	9a 83       	std	Y+2, r25	; 0x02
    3960:	80 e0       	ldi	r24, 0x00	; 0
    3962:	92 e0       	ldi	r25, 0x02	; 2
    3964:	20 e0       	ldi	r18, 0x00	; 0
    3966:	32 e0       	ldi	r19, 0x02	; 2
    3968:	f9 01       	movw	r30, r18
    396a:	24 81       	ldd	r18, Z+4	; 0x04
    396c:	28 7f       	andi	r18, 0xF8	; 248
    396e:	fc 01       	movw	r30, r24
    3970:	24 83       	std	Z+4, r18	; 0x04
    3972:	80 e0       	ldi	r24, 0x00	; 0
    3974:	92 e0       	ldi	r25, 0x02	; 2
    3976:	20 e0       	ldi	r18, 0x00	; 0
    3978:	32 e0       	ldi	r19, 0x02	; 2
    397a:	f9 01       	movw	r30, r18
    397c:	34 81       	ldd	r19, Z+4	; 0x04
    397e:	29 81       	ldd	r18, Y+1	; 0x01
    3980:	23 2b       	or	r18, r19
    3982:	fc 01       	movw	r30, r24
    3984:	24 83       	std	Z+4, r18	; 0x04
    3986:	0f 90       	pop	r0
    3988:	0f 90       	pop	r0
    398a:	df 91       	pop	r29
    398c:	cf 91       	pop	r28
    398e:	08 95       	ret
    3990:	cf 93       	push	r28
    3992:	df 93       	push	r29
    3994:	1f 92       	push	r1
    3996:	cd b7       	in	r28, 0x3d	; 61
    3998:	de b7       	in	r29, 0x3e	; 62
    399a:	89 83       	std	Y+1, r24	; 0x01
    399c:	80 e0       	ldi	r24, 0x00	; 0
    399e:	92 e0       	ldi	r25, 0x02	; 2
    39a0:	20 e0       	ldi	r18, 0x00	; 0
    39a2:	32 e0       	ldi	r19, 0x02	; 2
    39a4:	f9 01       	movw	r30, r18
    39a6:	36 81       	ldd	r19, Z+6	; 0x06
    39a8:	29 81       	ldd	r18, Y+1	; 0x01
    39aa:	23 2b       	or	r18, r19
    39ac:	fc 01       	movw	r30, r24
    39ae:	26 83       	std	Z+6, r18	; 0x06
    39b0:	0f 90       	pop	r0
    39b2:	df 91       	pop	r29
    39b4:	cf 91       	pop	r28
    39b6:	08 95       	ret
    39b8:	cf 93       	push	r28
    39ba:	df 93       	push	r29
    39bc:	00 d0       	rcall	.+0      	;  0x39be
    39be:	1f 92       	push	r1
    39c0:	cd b7       	in	r28, 0x3d	; 61
    39c2:	de b7       	in	r29, 0x3e	; 62
    39c4:	89 83       	std	Y+1, r24	; 0x01
    39c6:	9a 83       	std	Y+2, r25	; 0x02
    39c8:	6b 83       	std	Y+3, r22	; 0x03
    39ca:	7c 83       	std	Y+4, r23	; 0x04
    39cc:	89 81       	ldd	r24, Y+1	; 0x01
    39ce:	9a 81       	ldd	r25, Y+2	; 0x02
    39d0:	fc 01       	movw	r30, r24
    39d2:	80 81       	ld	r24, Z
    39d4:	28 2f       	mov	r18, r24
    39d6:	23 7e       	andi	r18, 0xE3	; 227
    39d8:	89 81       	ldd	r24, Y+1	; 0x01
    39da:	9a 81       	ldd	r25, Y+2	; 0x02
    39dc:	fc 01       	movw	r30, r24
    39de:	20 83       	st	Z, r18
    39e0:	89 81       	ldd	r24, Y+1	; 0x01
    39e2:	9a 81       	ldd	r25, Y+2	; 0x02
    39e4:	fc 01       	movw	r30, r24
    39e6:	90 81       	ld	r25, Z
    39e8:	8b 81       	ldd	r24, Y+3	; 0x03
    39ea:	29 2f       	mov	r18, r25
    39ec:	28 2b       	or	r18, r24
    39ee:	89 81       	ldd	r24, Y+1	; 0x01
    39f0:	9a 81       	ldd	r25, Y+2	; 0x02
    39f2:	fc 01       	movw	r30, r24
    39f4:	20 83       	st	Z, r18
    39f6:	24 96       	adiw	r28, 0x04	; 4
    39f8:	cd bf       	out	0x3d, r28	; 61
    39fa:	de bf       	out	0x3e, r29	; 62
    39fc:	df 91       	pop	r29
    39fe:	cf 91       	pop	r28
    3a00:	08 95       	ret
    3a02:	cf 93       	push	r28
    3a04:	df 93       	push	r29
    3a06:	00 d0       	rcall	.+0      	;  0x3a08
    3a08:	1f 92       	push	r1
    3a0a:	cd b7       	in	r28, 0x3d	; 61
    3a0c:	de b7       	in	r29, 0x3e	; 62
    3a0e:	89 83       	std	Y+1, r24	; 0x01
    3a10:	9a 83       	std	Y+2, r25	; 0x02
    3a12:	6b 83       	std	Y+3, r22	; 0x03
    3a14:	7c 83       	std	Y+4, r23	; 0x04
    3a16:	89 81       	ldd	r24, Y+1	; 0x01
    3a18:	9a 81       	ldd	r25, Y+2	; 0x02
    3a1a:	fc 01       	movw	r30, r24
    3a1c:	80 81       	ld	r24, Z
    3a1e:	28 2f       	mov	r18, r24
    3a20:	2c 7f       	andi	r18, 0xFC	; 252
    3a22:	89 81       	ldd	r24, Y+1	; 0x01
    3a24:	9a 81       	ldd	r25, Y+2	; 0x02
    3a26:	fc 01       	movw	r30, r24
    3a28:	20 83       	st	Z, r18
    3a2a:	89 81       	ldd	r24, Y+1	; 0x01
    3a2c:	9a 81       	ldd	r25, Y+2	; 0x02
    3a2e:	fc 01       	movw	r30, r24
    3a30:	90 81       	ld	r25, Z
    3a32:	8b 81       	ldd	r24, Y+3	; 0x03
    3a34:	29 2f       	mov	r18, r25
    3a36:	28 2b       	or	r18, r24
    3a38:	89 81       	ldd	r24, Y+1	; 0x01
    3a3a:	9a 81       	ldd	r25, Y+2	; 0x02
    3a3c:	fc 01       	movw	r30, r24
    3a3e:	20 83       	st	Z, r18
    3a40:	24 96       	adiw	r28, 0x04	; 4
    3a42:	cd bf       	out	0x3d, r28	; 61
    3a44:	de bf       	out	0x3e, r29	; 62
    3a46:	df 91       	pop	r29
    3a48:	cf 91       	pop	r28
    3a4a:	08 95       	ret
    3a4c:	cf 93       	push	r28
    3a4e:	df 93       	push	r29
    3a50:	00 d0       	rcall	.+0      	;  0x3a52
    3a52:	1f 92       	push	r1
    3a54:	cd b7       	in	r28, 0x3d	; 61
    3a56:	de b7       	in	r29, 0x3e	; 62
    3a58:	89 83       	std	Y+1, r24	; 0x01
    3a5a:	9a 83       	std	Y+2, r25	; 0x02
    3a5c:	6b 83       	std	Y+3, r22	; 0x03
    3a5e:	7c 83       	std	Y+4, r23	; 0x04
    3a60:	89 81       	ldd	r24, Y+1	; 0x01
    3a62:	9a 81       	ldd	r25, Y+2	; 0x02
    3a64:	fc 01       	movw	r30, r24
    3a66:	81 81       	ldd	r24, Z+1	; 0x01
    3a68:	28 2f       	mov	r18, r24
    3a6a:	27 78       	andi	r18, 0x87	; 135
    3a6c:	89 81       	ldd	r24, Y+1	; 0x01
    3a6e:	9a 81       	ldd	r25, Y+2	; 0x02
    3a70:	fc 01       	movw	r30, r24
    3a72:	21 83       	std	Z+1, r18	; 0x01
    3a74:	89 81       	ldd	r24, Y+1	; 0x01
    3a76:	9a 81       	ldd	r25, Y+2	; 0x02
    3a78:	fc 01       	movw	r30, r24
    3a7a:	91 81       	ldd	r25, Z+1	; 0x01
    3a7c:	8b 81       	ldd	r24, Y+3	; 0x03
    3a7e:	29 2f       	mov	r18, r25
    3a80:	28 2b       	or	r18, r24
    3a82:	89 81       	ldd	r24, Y+1	; 0x01
    3a84:	9a 81       	ldd	r25, Y+2	; 0x02
    3a86:	fc 01       	movw	r30, r24
    3a88:	21 83       	std	Z+1, r18	; 0x01
    3a8a:	24 96       	adiw	r28, 0x04	; 4
    3a8c:	cd bf       	out	0x3d, r28	; 61
    3a8e:	de bf       	out	0x3e, r29	; 62
    3a90:	df 91       	pop	r29
    3a92:	cf 91       	pop	r28
    3a94:	08 95       	ret
    3a96:	cf 93       	push	r28
    3a98:	df 93       	push	r29
    3a9a:	00 d0       	rcall	.+0      	;  0x3a9c
    3a9c:	1f 92       	push	r1
    3a9e:	cd b7       	in	r28, 0x3d	; 61
    3aa0:	de b7       	in	r29, 0x3e	; 62
    3aa2:	89 83       	std	Y+1, r24	; 0x01
    3aa4:	9a 83       	std	Y+2, r25	; 0x02
    3aa6:	6b 83       	std	Y+3, r22	; 0x03
    3aa8:	7c 83       	std	Y+4, r23	; 0x04
    3aaa:	89 81       	ldd	r24, Y+1	; 0x01
    3aac:	9a 81       	ldd	r25, Y+2	; 0x02
    3aae:	fc 01       	movw	r30, r24
    3ab0:	82 81       	ldd	r24, Z+2	; 0x02
    3ab2:	28 2f       	mov	r18, r24
    3ab4:	2c 7f       	andi	r18, 0xFC	; 252
    3ab6:	89 81       	ldd	r24, Y+1	; 0x01
    3ab8:	9a 81       	ldd	r25, Y+2	; 0x02
    3aba:	fc 01       	movw	r30, r24
    3abc:	22 83       	std	Z+2, r18	; 0x02
    3abe:	89 81       	ldd	r24, Y+1	; 0x01
    3ac0:	9a 81       	ldd	r25, Y+2	; 0x02
    3ac2:	fc 01       	movw	r30, r24
    3ac4:	92 81       	ldd	r25, Z+2	; 0x02
    3ac6:	8b 81       	ldd	r24, Y+3	; 0x03
    3ac8:	29 2f       	mov	r18, r25
    3aca:	28 2b       	or	r18, r24
    3acc:	89 81       	ldd	r24, Y+1	; 0x01
    3ace:	9a 81       	ldd	r25, Y+2	; 0x02
    3ad0:	fc 01       	movw	r30, r24
    3ad2:	22 83       	std	Z+2, r18	; 0x02
    3ad4:	24 96       	adiw	r28, 0x04	; 4
    3ad6:	cd bf       	out	0x3d, r28	; 61
    3ad8:	de bf       	out	0x3e, r29	; 62
    3ada:	df 91       	pop	r29
    3adc:	cf 91       	pop	r28
    3ade:	08 95       	ret
    3ae0:	cf 93       	push	r28
    3ae2:	df 93       	push	r29
    3ae4:	cd b7       	in	r28, 0x3d	; 61
    3ae6:	de b7       	in	r29, 0x3e	; 62
    3ae8:	28 97       	sbiw	r28, 0x08	; 8
    3aea:	cd bf       	out	0x3d, r28	; 61
    3aec:	de bf       	out	0x3e, r29	; 62
    3aee:	86 e2       	ldi	r24, 0x26	; 38
    3af0:	98 e1       	ldi	r25, 0x18	; 24
    3af2:	a4 e3       	ldi	r26, 0x34	; 52
    3af4:	b1 ec       	ldi	r27, 0xC1	; 193
    3af6:	80 93 c7 22 	sts	0x22C7, r24
    3afa:	90 93 c8 22 	sts	0x22C8, r25
    3afe:	a0 93 c9 22 	sts	0x22C9, r26
    3b02:	b0 93 ca 22 	sts	0x22CA, r27
    3b06:	87 e9       	ldi	r24, 0x97	; 151
    3b08:	9b ee       	ldi	r25, 0xEB	; 235
    3b0a:	a8 e5       	ldi	r26, 0x58	; 88
    3b0c:	be ea       	ldi	r27, 0xAE	; 174
    3b0e:	80 93 c7 22 	sts	0x22C7, r24
    3b12:	90 93 c8 22 	sts	0x22C8, r25
    3b16:	a0 93 c9 22 	sts	0x22C9, r26
    3b1a:	b0 93 ca 22 	sts	0x22CA, r27
    3b1e:	8f ef       	ldi	r24, 0xFF	; 255
    3b20:	9b e3       	ldi	r25, 0x3B	; 59
    3b22:	a2 e2       	ldi	r26, 0x22	; 34
    3b24:	b5 e6       	ldi	r27, 0x65	; 101
    3b26:	80 93 cf 22 	sts	0x22CF, r24
    3b2a:	90 93 d0 22 	sts	0x22D0, r25
    3b2e:	a0 93 d1 22 	sts	0x22D1, r26
    3b32:	b0 93 d2 22 	sts	0x22D2, r27
    3b36:	82 e0       	ldi	r24, 0x02	; 2
    3b38:	9f ef       	ldi	r25, 0xFF	; 255
    3b3a:	a1 e0       	ldi	r26, 0x01	; 1
    3b3c:	b0 e0       	ldi	r27, 0x00	; 0
    3b3e:	89 83       	std	Y+1, r24	; 0x01
    3b40:	9a 83       	std	Y+2, r25	; 0x02
    3b42:	ab 83       	std	Y+3, r26	; 0x03
    3b44:	bc 83       	std	Y+4, r27	; 0x04
    3b46:	89 81       	ldd	r24, Y+1	; 0x01
    3b48:	9a 81       	ldd	r25, Y+2	; 0x02
    3b4a:	ab 81       	ldd	r26, Y+3	; 0x03
    3b4c:	bc 81       	ldd	r27, Y+4	; 0x04
    3b4e:	0b b6       	in	r0, 0x3b	; 59
    3b50:	ab bf       	out	0x3b, r26	; 59
    3b52:	fc 01       	movw	r30, r24
    3b54:	87 91       	elpm	r24, Z+
    3b56:	97 91       	elpm	r25, Z+
    3b58:	a7 91       	elpm	r26, Z+
    3b5a:	b6 91       	elpm	r27, Z
    3b5c:	0b be       	out	0x3b, r0	; 59
    3b5e:	8d 83       	std	Y+5, r24	; 0x05
    3b60:	9e 83       	std	Y+6, r25	; 0x06
    3b62:	af 83       	std	Y+7, r26	; 0x07
    3b64:	b8 87       	std	Y+8, r27	; 0x08
    3b66:	8d 81       	ldd	r24, Y+5	; 0x05
    3b68:	9e 81       	ldd	r25, Y+6	; 0x06
    3b6a:	af 81       	ldd	r26, Y+7	; 0x07
    3b6c:	b8 85       	ldd	r27, Y+8	; 0x08
    3b6e:	ac 01       	movw	r20, r24
    3b70:	bd 01       	movw	r22, r26
    3b72:	87 eb       	ldi	r24, 0xB7	; 183
    3b74:	92 e2       	ldi	r25, 0x22	; 34
    3b76:	0e 94 e7 1f 	call	0x3fce	;  0x3fce
    3b7a:	81 e0       	ldi	r24, 0x01	; 1
    3b7c:	80 93 5b 22 	sts	0x225B, r24
    3b80:	28 96       	adiw	r28, 0x08	; 8
    3b82:	cd bf       	out	0x3d, r28	; 61
    3b84:	de bf       	out	0x3e, r29	; 62
    3b86:	df 91       	pop	r29
    3b88:	cf 91       	pop	r28
    3b8a:	08 95       	ret
    3b8c:	cf 93       	push	r28
    3b8e:	df 93       	push	r29
    3b90:	cd b7       	in	r28, 0x3d	; 61
    3b92:	de b7       	in	r29, 0x3e	; 62
    3b94:	80 91 5b 22 	lds	r24, 0x225B
    3b98:	88 23       	and	r24, r24
    3b9a:	11 f4       	brne	.+4      	;  0x3ba0
    3b9c:	0e 94 70 1d 	call	0x3ae0	;  0x3ae0
    3ba0:	87 eb       	ldi	r24, 0xB7	; 183
    3ba2:	92 e2       	ldi	r25, 0x22	; 34
    3ba4:	0e 94 66 1f 	call	0x3ecc	;  0x3ecc
    3ba8:	dc 01       	movw	r26, r24
    3baa:	cb 01       	movw	r24, r22
    3bac:	bc 01       	movw	r22, r24
    3bae:	cd 01       	movw	r24, r26
    3bb0:	df 91       	pop	r29
    3bb2:	cf 91       	pop	r28
    3bb4:	08 95       	ret
    3bb6:	ef 92       	push	r14
    3bb8:	ff 92       	push	r15
    3bba:	0f 93       	push	r16
    3bbc:	1f 93       	push	r17
    3bbe:	cf 93       	push	r28
    3bc0:	df 93       	push	r29
    3bc2:	cd b7       	in	r28, 0x3d	; 61
    3bc4:	de b7       	in	r29, 0x3e	; 62
    3bc6:	2a 97       	sbiw	r28, 0x0a	; 10
    3bc8:	cd bf       	out	0x3d, r28	; 61
    3bca:	de bf       	out	0x3e, r29	; 62
    3bcc:	89 87       	std	Y+9, r24	; 0x09
    3bce:	9a 87       	std	Y+10, r25	; 0x0a
    3bd0:	89 85       	ldd	r24, Y+9	; 0x09
    3bd2:	9a 85       	ldd	r25, Y+10	; 0x0a
    3bd4:	fc 01       	movw	r30, r24
    3bd6:	84 85       	ldd	r24, Z+12	; 0x0c
    3bd8:	95 85       	ldd	r25, Z+13	; 0x0d
    3bda:	a6 85       	ldd	r26, Z+14	; 0x0e
    3bdc:	b7 85       	ldd	r27, Z+15	; 0x0f
    3bde:	89 83       	std	Y+1, r24	; 0x01
    3be0:	9a 83       	std	Y+2, r25	; 0x02
    3be2:	ab 83       	std	Y+3, r26	; 0x03
    3be4:	bc 83       	std	Y+4, r27	; 0x04
    3be6:	89 85       	ldd	r24, Y+9	; 0x09
    3be8:	9a 85       	ldd	r25, Y+10	; 0x0a
    3bea:	fc 01       	movw	r30, r24
    3bec:	80 81       	ld	r24, Z
    3bee:	91 81       	ldd	r25, Z+1	; 0x01
    3bf0:	a2 81       	ldd	r26, Z+2	; 0x02
    3bf2:	b3 81       	ldd	r27, Z+3	; 0x03
    3bf4:	9c 01       	movw	r18, r24
    3bf6:	ad 01       	movw	r20, r26
    3bf8:	5f 77       	andi	r21, 0x7F	; 127
    3bfa:	89 85       	ldd	r24, Y+9	; 0x09
    3bfc:	9a 85       	ldd	r25, Y+10	; 0x0a
    3bfe:	fc 01       	movw	r30, r24
    3c00:	84 81       	ldd	r24, Z+4	; 0x04
    3c02:	95 81       	ldd	r25, Z+5	; 0x05
    3c04:	a6 81       	ldd	r26, Z+6	; 0x06
    3c06:	b7 81       	ldd	r27, Z+7	; 0x07
    3c08:	28 27       	eor	r18, r24
    3c0a:	39 27       	eor	r19, r25
    3c0c:	4a 27       	eor	r20, r26
    3c0e:	5b 27       	eor	r21, r27
    3c10:	89 85       	ldd	r24, Y+9	; 0x09
    3c12:	9a 85       	ldd	r25, Y+10	; 0x0a
    3c14:	fc 01       	movw	r30, r24
    3c16:	80 85       	ldd	r24, Z+8	; 0x08
    3c18:	91 85       	ldd	r25, Z+9	; 0x09
    3c1a:	a2 85       	ldd	r26, Z+10	; 0x0a
    3c1c:	b3 85       	ldd	r27, Z+11	; 0x0b
    3c1e:	82 27       	eor	r24, r18
    3c20:	93 27       	eor	r25, r19
    3c22:	a4 27       	eor	r26, r20
    3c24:	b5 27       	eor	r27, r21
    3c26:	8d 83       	std	Y+5, r24	; 0x05
    3c28:	9e 83       	std	Y+6, r25	; 0x06
    3c2a:	af 83       	std	Y+7, r26	; 0x07
    3c2c:	b8 87       	std	Y+8, r27	; 0x08
    3c2e:	8d 81       	ldd	r24, Y+5	; 0x05
    3c30:	9e 81       	ldd	r25, Y+6	; 0x06
    3c32:	af 81       	ldd	r26, Y+7	; 0x07
    3c34:	b8 85       	ldd	r27, Y+8	; 0x08
    3c36:	88 0f       	add	r24, r24
    3c38:	99 1f       	adc	r25, r25
    3c3a:	aa 1f       	adc	r26, r26
    3c3c:	bb 1f       	adc	r27, r27
    3c3e:	2d 81       	ldd	r18, Y+5	; 0x05
    3c40:	3e 81       	ldd	r19, Y+6	; 0x06
    3c42:	4f 81       	ldd	r20, Y+7	; 0x07
    3c44:	58 85       	ldd	r21, Y+8	; 0x08
    3c46:	82 27       	eor	r24, r18
    3c48:	93 27       	eor	r25, r19
    3c4a:	a4 27       	eor	r26, r20
    3c4c:	b5 27       	eor	r27, r21
    3c4e:	8d 83       	std	Y+5, r24	; 0x05
    3c50:	9e 83       	std	Y+6, r25	; 0x06
    3c52:	af 83       	std	Y+7, r26	; 0x07
    3c54:	b8 87       	std	Y+8, r27	; 0x08
    3c56:	89 81       	ldd	r24, Y+1	; 0x01
    3c58:	9a 81       	ldd	r25, Y+2	; 0x02
    3c5a:	ab 81       	ldd	r26, Y+3	; 0x03
    3c5c:	bc 81       	ldd	r27, Y+4	; 0x04
    3c5e:	9c 01       	movw	r18, r24
    3c60:	ad 01       	movw	r20, r26
    3c62:	56 95       	lsr	r21
    3c64:	47 95       	ror	r20
    3c66:	37 95       	ror	r19
    3c68:	27 95       	ror	r18
    3c6a:	8d 81       	ldd	r24, Y+5	; 0x05
    3c6c:	9e 81       	ldd	r25, Y+6	; 0x06
    3c6e:	af 81       	ldd	r26, Y+7	; 0x07
    3c70:	b8 85       	ldd	r27, Y+8	; 0x08
    3c72:	82 27       	eor	r24, r18
    3c74:	93 27       	eor	r25, r19
    3c76:	a4 27       	eor	r26, r20
    3c78:	b5 27       	eor	r27, r21
    3c7a:	29 81       	ldd	r18, Y+1	; 0x01
    3c7c:	3a 81       	ldd	r19, Y+2	; 0x02
    3c7e:	4b 81       	ldd	r20, Y+3	; 0x03
    3c80:	5c 81       	ldd	r21, Y+4	; 0x04
    3c82:	82 27       	eor	r24, r18
    3c84:	93 27       	eor	r25, r19
    3c86:	a4 27       	eor	r26, r20
    3c88:	b5 27       	eor	r27, r21
    3c8a:	89 83       	std	Y+1, r24	; 0x01
    3c8c:	9a 83       	std	Y+2, r25	; 0x02
    3c8e:	ab 83       	std	Y+3, r26	; 0x03
    3c90:	bc 83       	std	Y+4, r27	; 0x04
    3c92:	89 85       	ldd	r24, Y+9	; 0x09
    3c94:	9a 85       	ldd	r25, Y+10	; 0x0a
    3c96:	fc 01       	movw	r30, r24
    3c98:	84 81       	ldd	r24, Z+4	; 0x04
    3c9a:	95 81       	ldd	r25, Z+5	; 0x05
    3c9c:	a6 81       	ldd	r26, Z+6	; 0x06
    3c9e:	b7 81       	ldd	r27, Z+7	; 0x07
    3ca0:	29 85       	ldd	r18, Y+9	; 0x09
    3ca2:	3a 85       	ldd	r19, Y+10	; 0x0a
    3ca4:	f9 01       	movw	r30, r18
    3ca6:	80 83       	st	Z, r24
    3ca8:	91 83       	std	Z+1, r25	; 0x01
    3caa:	a2 83       	std	Z+2, r26	; 0x02
    3cac:	b3 83       	std	Z+3, r27	; 0x03
    3cae:	89 85       	ldd	r24, Y+9	; 0x09
    3cb0:	9a 85       	ldd	r25, Y+10	; 0x0a
    3cb2:	fc 01       	movw	r30, r24
    3cb4:	80 85       	ldd	r24, Z+8	; 0x08
    3cb6:	91 85       	ldd	r25, Z+9	; 0x09
    3cb8:	a2 85       	ldd	r26, Z+10	; 0x0a
    3cba:	b3 85       	ldd	r27, Z+11	; 0x0b
    3cbc:	29 85       	ldd	r18, Y+9	; 0x09
    3cbe:	3a 85       	ldd	r19, Y+10	; 0x0a
    3cc0:	f9 01       	movw	r30, r18
    3cc2:	84 83       	std	Z+4, r24	; 0x04
    3cc4:	95 83       	std	Z+5, r25	; 0x05
    3cc6:	a6 83       	std	Z+6, r26	; 0x06
    3cc8:	b7 83       	std	Z+7, r27	; 0x07
    3cca:	89 81       	ldd	r24, Y+1	; 0x01
    3ccc:	9a 81       	ldd	r25, Y+2	; 0x02
    3cce:	ab 81       	ldd	r26, Y+3	; 0x03
    3cd0:	bc 81       	ldd	r27, Y+4	; 0x04
    3cd2:	9c 01       	movw	r18, r24
    3cd4:	ad 01       	movw	r20, r26
    3cd6:	01 2e       	mov	r0, r17
    3cd8:	1a e0       	ldi	r17, 0x0A	; 10
    3cda:	22 0f       	add	r18, r18
    3cdc:	33 1f       	adc	r19, r19
    3cde:	44 1f       	adc	r20, r20
    3ce0:	55 1f       	adc	r21, r21
    3ce2:	1a 95       	dec	r17
    3ce4:	d1 f7       	brne	.-12     	;  0x3cda
    3ce6:	10 2d       	mov	r17, r0
    3ce8:	8d 81       	ldd	r24, Y+5	; 0x05
    3cea:	9e 81       	ldd	r25, Y+6	; 0x06
    3cec:	af 81       	ldd	r26, Y+7	; 0x07
    3cee:	b8 85       	ldd	r27, Y+8	; 0x08
    3cf0:	82 27       	eor	r24, r18
    3cf2:	93 27       	eor	r25, r19
    3cf4:	a4 27       	eor	r26, r20
    3cf6:	b5 27       	eor	r27, r21
    3cf8:	29 85       	ldd	r18, Y+9	; 0x09
    3cfa:	3a 85       	ldd	r19, Y+10	; 0x0a
    3cfc:	f9 01       	movw	r30, r18
    3cfe:	80 87       	std	Z+8, r24	; 0x08
    3d00:	91 87       	std	Z+9, r25	; 0x09
    3d02:	a2 87       	std	Z+10, r26	; 0x0a
    3d04:	b3 87       	std	Z+11, r27	; 0x0b
    3d06:	29 85       	ldd	r18, Y+9	; 0x09
    3d08:	3a 85       	ldd	r19, Y+10	; 0x0a
    3d0a:	89 81       	ldd	r24, Y+1	; 0x01
    3d0c:	9a 81       	ldd	r25, Y+2	; 0x02
    3d0e:	ab 81       	ldd	r26, Y+3	; 0x03
    3d10:	bc 81       	ldd	r27, Y+4	; 0x04
    3d12:	f9 01       	movw	r30, r18
    3d14:	84 87       	std	Z+12, r24	; 0x0c
    3d16:	95 87       	std	Z+13, r25	; 0x0d
    3d18:	a6 87       	std	Z+14, r26	; 0x0e
    3d1a:	b7 87       	std	Z+15, r27	; 0x0f
    3d1c:	89 85       	ldd	r24, Y+9	; 0x09
    3d1e:	9a 85       	ldd	r25, Y+10	; 0x0a
    3d20:	fc 01       	movw	r30, r24
    3d22:	24 81       	ldd	r18, Z+4	; 0x04
    3d24:	35 81       	ldd	r19, Z+5	; 0x05
    3d26:	46 81       	ldd	r20, Z+6	; 0x06
    3d28:	57 81       	ldd	r21, Z+7	; 0x07
    3d2a:	89 81       	ldd	r24, Y+1	; 0x01
    3d2c:	9a 81       	ldd	r25, Y+2	; 0x02
    3d2e:	ab 81       	ldd	r26, Y+3	; 0x03
    3d30:	bc 81       	ldd	r27, Y+4	; 0x04
    3d32:	81 70       	andi	r24, 0x01	; 1
    3d34:	99 27       	eor	r25, r25
    3d36:	aa 27       	eor	r26, r26
    3d38:	bb 27       	eor	r27, r27
    3d3a:	b0 95       	com	r27
    3d3c:	a0 95       	com	r26
    3d3e:	90 95       	com	r25
    3d40:	81 95       	neg	r24
    3d42:	9f 4f       	sbci	r25, 0xFF	; 255
    3d44:	af 4f       	sbci	r26, 0xFF	; 255
    3d46:	bf 4f       	sbci	r27, 0xFF	; 255
    3d48:	7c 01       	movw	r14, r24
    3d4a:	8d 01       	movw	r16, r26
    3d4c:	89 85       	ldd	r24, Y+9	; 0x09
    3d4e:	9a 85       	ldd	r25, Y+10	; 0x0a
    3d50:	fc 01       	movw	r30, r24
    3d52:	80 89       	ldd	r24, Z+16	; 0x10
    3d54:	91 89       	ldd	r25, Z+17	; 0x11
    3d56:	a2 89       	ldd	r26, Z+18	; 0x12
    3d58:	b3 89       	ldd	r27, Z+19	; 0x13
    3d5a:	8e 21       	and	r24, r14
    3d5c:	9f 21       	and	r25, r15
    3d5e:	a0 23       	and	r26, r16
    3d60:	b1 23       	and	r27, r17
    3d62:	82 27       	eor	r24, r18
    3d64:	93 27       	eor	r25, r19
    3d66:	a4 27       	eor	r26, r20
    3d68:	b5 27       	eor	r27, r21
    3d6a:	29 85       	ldd	r18, Y+9	; 0x09
    3d6c:	3a 85       	ldd	r19, Y+10	; 0x0a
    3d6e:	f9 01       	movw	r30, r18
    3d70:	84 83       	std	Z+4, r24	; 0x04
    3d72:	95 83       	std	Z+5, r25	; 0x05
    3d74:	a6 83       	std	Z+6, r26	; 0x06
    3d76:	b7 83       	std	Z+7, r27	; 0x07
    3d78:	89 85       	ldd	r24, Y+9	; 0x09
    3d7a:	9a 85       	ldd	r25, Y+10	; 0x0a
    3d7c:	fc 01       	movw	r30, r24
    3d7e:	20 85       	ldd	r18, Z+8	; 0x08
    3d80:	31 85       	ldd	r19, Z+9	; 0x09
    3d82:	42 85       	ldd	r20, Z+10	; 0x0a
    3d84:	53 85       	ldd	r21, Z+11	; 0x0b
    3d86:	89 81       	ldd	r24, Y+1	; 0x01
    3d88:	9a 81       	ldd	r25, Y+2	; 0x02
    3d8a:	ab 81       	ldd	r26, Y+3	; 0x03
    3d8c:	bc 81       	ldd	r27, Y+4	; 0x04
    3d8e:	81 70       	andi	r24, 0x01	; 1
    3d90:	99 27       	eor	r25, r25
    3d92:	aa 27       	eor	r26, r26
    3d94:	bb 27       	eor	r27, r27
    3d96:	b0 95       	com	r27
    3d98:	a0 95       	com	r26
    3d9a:	90 95       	com	r25
    3d9c:	81 95       	neg	r24
    3d9e:	9f 4f       	sbci	r25, 0xFF	; 255
    3da0:	af 4f       	sbci	r26, 0xFF	; 255
    3da2:	bf 4f       	sbci	r27, 0xFF	; 255
    3da4:	7c 01       	movw	r14, r24
    3da6:	8d 01       	movw	r16, r26
    3da8:	89 85       	ldd	r24, Y+9	; 0x09
    3daa:	9a 85       	ldd	r25, Y+10	; 0x0a
    3dac:	fc 01       	movw	r30, r24
    3dae:	84 89       	ldd	r24, Z+20	; 0x14
    3db0:	95 89       	ldd	r25, Z+21	; 0x15
    3db2:	a6 89       	ldd	r26, Z+22	; 0x16
    3db4:	b7 89       	ldd	r27, Z+23	; 0x17
    3db6:	8e 21       	and	r24, r14
    3db8:	9f 21       	and	r25, r15
    3dba:	a0 23       	and	r26, r16
    3dbc:	b1 23       	and	r27, r17
    3dbe:	82 27       	eor	r24, r18
    3dc0:	93 27       	eor	r25, r19
    3dc2:	a4 27       	eor	r26, r20
    3dc4:	b5 27       	eor	r27, r21
    3dc6:	29 85       	ldd	r18, Y+9	; 0x09
    3dc8:	3a 85       	ldd	r19, Y+10	; 0x0a
    3dca:	f9 01       	movw	r30, r18
    3dcc:	80 87       	std	Z+8, r24	; 0x08
    3dce:	91 87       	std	Z+9, r25	; 0x09
    3dd0:	a2 87       	std	Z+10, r26	; 0x0a
    3dd2:	b3 87       	std	Z+11, r27	; 0x0b
    3dd4:	2a 96       	adiw	r28, 0x0a	; 10
    3dd6:	cd bf       	out	0x3d, r28	; 61
    3dd8:	de bf       	out	0x3e, r29	; 62
    3dda:	df 91       	pop	r29
    3ddc:	cf 91       	pop	r28
    3dde:	1f 91       	pop	r17
    3de0:	0f 91       	pop	r16
    3de2:	ff 90       	pop	r15
    3de4:	ef 90       	pop	r14
    3de6:	08 95       	ret
    3de8:	cf 93       	push	r28
    3dea:	df 93       	push	r29
    3dec:	cd b7       	in	r28, 0x3d	; 61
    3dee:	de b7       	in	r29, 0x3e	; 62
    3df0:	2a 97       	sbiw	r28, 0x0a	; 10
    3df2:	cd bf       	out	0x3d, r28	; 61
    3df4:	de bf       	out	0x3e, r29	; 62
    3df6:	89 87       	std	Y+9, r24	; 0x09
    3df8:	9a 87       	std	Y+10, r25	; 0x0a
    3dfa:	89 85       	ldd	r24, Y+9	; 0x09
    3dfc:	9a 85       	ldd	r25, Y+10	; 0x0a
    3dfe:	fc 01       	movw	r30, r24
    3e00:	84 85       	ldd	r24, Z+12	; 0x0c
    3e02:	95 85       	ldd	r25, Z+13	; 0x0d
    3e04:	a6 85       	ldd	r26, Z+14	; 0x0e
    3e06:	b7 85       	ldd	r27, Z+15	; 0x0f
    3e08:	89 83       	std	Y+1, r24	; 0x01
    3e0a:	9a 83       	std	Y+2, r25	; 0x02
    3e0c:	ab 83       	std	Y+3, r26	; 0x03
    3e0e:	bc 83       	std	Y+4, r27	; 0x04
    3e10:	89 85       	ldd	r24, Y+9	; 0x09
    3e12:	9a 85       	ldd	r25, Y+10	; 0x0a
    3e14:	fc 01       	movw	r30, r24
    3e16:	20 81       	ld	r18, Z
    3e18:	31 81       	ldd	r19, Z+1	; 0x01
    3e1a:	42 81       	ldd	r20, Z+2	; 0x02
    3e1c:	53 81       	ldd	r21, Z+3	; 0x03
    3e1e:	89 85       	ldd	r24, Y+9	; 0x09
    3e20:	9a 85       	ldd	r25, Y+10	; 0x0a
    3e22:	fc 01       	movw	r30, r24
    3e24:	80 85       	ldd	r24, Z+8	; 0x08
    3e26:	91 85       	ldd	r25, Z+9	; 0x09
    3e28:	a2 85       	ldd	r26, Z+10	; 0x0a
    3e2a:	b3 85       	ldd	r27, Z+11	; 0x0b
    3e2c:	89 2f       	mov	r24, r25
    3e2e:	9a 2f       	mov	r25, r26
    3e30:	ab 2f       	mov	r26, r27
    3e32:	bb 27       	eor	r27, r27
    3e34:	82 0f       	add	r24, r18
    3e36:	93 1f       	adc	r25, r19
    3e38:	a4 1f       	adc	r26, r20
    3e3a:	b5 1f       	adc	r27, r21
    3e3c:	8d 83       	std	Y+5, r24	; 0x05
    3e3e:	9e 83       	std	Y+6, r25	; 0x06
    3e40:	af 83       	std	Y+7, r26	; 0x07
    3e42:	b8 87       	std	Y+8, r27	; 0x08
    3e44:	29 81       	ldd	r18, Y+1	; 0x01
    3e46:	3a 81       	ldd	r19, Y+2	; 0x02
    3e48:	4b 81       	ldd	r20, Y+3	; 0x03
    3e4a:	5c 81       	ldd	r21, Y+4	; 0x04
    3e4c:	8d 81       	ldd	r24, Y+5	; 0x05
    3e4e:	9e 81       	ldd	r25, Y+6	; 0x06
    3e50:	af 81       	ldd	r26, Y+7	; 0x07
    3e52:	b8 85       	ldd	r27, Y+8	; 0x08
    3e54:	82 27       	eor	r24, r18
    3e56:	93 27       	eor	r25, r19
    3e58:	a4 27       	eor	r26, r20
    3e5a:	b5 27       	eor	r27, r21
    3e5c:	89 83       	std	Y+1, r24	; 0x01
    3e5e:	9a 83       	std	Y+2, r25	; 0x02
    3e60:	ab 83       	std	Y+3, r26	; 0x03
    3e62:	bc 83       	std	Y+4, r27	; 0x04
    3e64:	8d 81       	ldd	r24, Y+5	; 0x05
    3e66:	9e 81       	ldd	r25, Y+6	; 0x06
    3e68:	af 81       	ldd	r26, Y+7	; 0x07
    3e6a:	b8 85       	ldd	r27, Y+8	; 0x08
    3e6c:	81 70       	andi	r24, 0x01	; 1
    3e6e:	99 27       	eor	r25, r25
    3e70:	aa 27       	eor	r26, r26
    3e72:	bb 27       	eor	r27, r27
    3e74:	b0 95       	com	r27
    3e76:	a0 95       	com	r26
    3e78:	90 95       	com	r25
    3e7a:	81 95       	neg	r24
    3e7c:	9f 4f       	sbci	r25, 0xFF	; 255
    3e7e:	af 4f       	sbci	r26, 0xFF	; 255
    3e80:	bf 4f       	sbci	r27, 0xFF	; 255
    3e82:	9c 01       	movw	r18, r24
    3e84:	ad 01       	movw	r20, r26
    3e86:	89 85       	ldd	r24, Y+9	; 0x09
    3e88:	9a 85       	ldd	r25, Y+10	; 0x0a
    3e8a:	fc 01       	movw	r30, r24
    3e8c:	80 8d       	ldd	r24, Z+24	; 0x18
    3e8e:	91 8d       	ldd	r25, Z+25	; 0x19
    3e90:	a2 8d       	ldd	r26, Z+26	; 0x1a
    3e92:	b3 8d       	ldd	r27, Z+27	; 0x1b
    3e94:	82 23       	and	r24, r18
    3e96:	93 23       	and	r25, r19
    3e98:	a4 23       	and	r26, r20
    3e9a:	b5 23       	and	r27, r21
    3e9c:	29 81       	ldd	r18, Y+1	; 0x01
    3e9e:	3a 81       	ldd	r19, Y+2	; 0x02
    3ea0:	4b 81       	ldd	r20, Y+3	; 0x03
    3ea2:	5c 81       	ldd	r21, Y+4	; 0x04
    3ea4:	82 27       	eor	r24, r18
    3ea6:	93 27       	eor	r25, r19
    3ea8:	a4 27       	eor	r26, r20
    3eaa:	b5 27       	eor	r27, r21
    3eac:	89 83       	std	Y+1, r24	; 0x01
    3eae:	9a 83       	std	Y+2, r25	; 0x02
    3eb0:	ab 83       	std	Y+3, r26	; 0x03
    3eb2:	bc 83       	std	Y+4, r27	; 0x04
    3eb4:	89 81       	ldd	r24, Y+1	; 0x01
    3eb6:	9a 81       	ldd	r25, Y+2	; 0x02
    3eb8:	ab 81       	ldd	r26, Y+3	; 0x03
    3eba:	bc 81       	ldd	r27, Y+4	; 0x04
    3ebc:	bc 01       	movw	r22, r24
    3ebe:	cd 01       	movw	r24, r26
    3ec0:	2a 96       	adiw	r28, 0x0a	; 10
    3ec2:	cd bf       	out	0x3d, r28	; 61
    3ec4:	de bf       	out	0x3e, r29	; 62
    3ec6:	df 91       	pop	r29
    3ec8:	cf 91       	pop	r28
    3eca:	08 95       	ret
    3ecc:	cf 93       	push	r28
    3ece:	df 93       	push	r29
    3ed0:	1f 92       	push	r1
    3ed2:	1f 92       	push	r1
    3ed4:	cd b7       	in	r28, 0x3d	; 61
    3ed6:	de b7       	in	r29, 0x3e	; 62
    3ed8:	89 83       	std	Y+1, r24	; 0x01
    3eda:	9a 83       	std	Y+2, r25	; 0x02
    3edc:	89 81       	ldd	r24, Y+1	; 0x01
    3ede:	9a 81       	ldd	r25, Y+2	; 0x02
    3ee0:	0e 94 db 1d 	call	0x3bb6	;  0x3bb6
    3ee4:	89 81       	ldd	r24, Y+1	; 0x01
    3ee6:	9a 81       	ldd	r25, Y+2	; 0x02
    3ee8:	0e 94 f4 1e 	call	0x3de8	;  0x3de8
    3eec:	dc 01       	movw	r26, r24
    3eee:	cb 01       	movw	r24, r22
    3ef0:	bc 01       	movw	r22, r24
    3ef2:	cd 01       	movw	r24, r26
    3ef4:	0f 90       	pop	r0
    3ef6:	0f 90       	pop	r0
    3ef8:	df 91       	pop	r29
    3efa:	cf 91       	pop	r28
    3efc:	08 95       	ret
    3efe:	cf 93       	push	r28
    3f00:	df 93       	push	r29
    3f02:	1f 92       	push	r1
    3f04:	1f 92       	push	r1
    3f06:	cd b7       	in	r28, 0x3d	; 61
    3f08:	de b7       	in	r29, 0x3e	; 62
    3f0a:	89 83       	std	Y+1, r24	; 0x01
    3f0c:	9a 83       	std	Y+2, r25	; 0x02
    3f0e:	89 81       	ldd	r24, Y+1	; 0x01
    3f10:	9a 81       	ldd	r25, Y+2	; 0x02
    3f12:	fc 01       	movw	r30, r24
    3f14:	80 81       	ld	r24, Z
    3f16:	91 81       	ldd	r25, Z+1	; 0x01
    3f18:	a2 81       	ldd	r26, Z+2	; 0x02
    3f1a:	b3 81       	ldd	r27, Z+3	; 0x03
    3f1c:	bf 77       	andi	r27, 0x7F	; 127
    3f1e:	89 2b       	or	r24, r25
    3f20:	8a 2b       	or	r24, r26
    3f22:	8b 2b       	or	r24, r27
    3f24:	09 f0       	breq	.+2      	;  0x3f28
    3f26:	4e c0       	rjmp	.+156    	;  0x3fc4
    3f28:	89 81       	ldd	r24, Y+1	; 0x01
    3f2a:	9a 81       	ldd	r25, Y+2	; 0x02
    3f2c:	fc 01       	movw	r30, r24
    3f2e:	84 81       	ldd	r24, Z+4	; 0x04
    3f30:	95 81       	ldd	r25, Z+5	; 0x05
    3f32:	a6 81       	ldd	r26, Z+6	; 0x06
    3f34:	b7 81       	ldd	r27, Z+7	; 0x07
    3f36:	89 2b       	or	r24, r25
    3f38:	8a 2b       	or	r24, r26
    3f3a:	8b 2b       	or	r24, r27
    3f3c:	09 f0       	breq	.+2      	;  0x3f40
    3f3e:	42 c0       	rjmp	.+132    	;  0x3fc4
    3f40:	89 81       	ldd	r24, Y+1	; 0x01
    3f42:	9a 81       	ldd	r25, Y+2	; 0x02
    3f44:	fc 01       	movw	r30, r24
    3f46:	80 85       	ldd	r24, Z+8	; 0x08
    3f48:	91 85       	ldd	r25, Z+9	; 0x09
    3f4a:	a2 85       	ldd	r26, Z+10	; 0x0a
    3f4c:	b3 85       	ldd	r27, Z+11	; 0x0b
    3f4e:	89 2b       	or	r24, r25
    3f50:	8a 2b       	or	r24, r26
    3f52:	8b 2b       	or	r24, r27
    3f54:	b9 f5       	brne	.+110    	;  0x3fc4
    3f56:	89 81       	ldd	r24, Y+1	; 0x01
    3f58:	9a 81       	ldd	r25, Y+2	; 0x02
    3f5a:	fc 01       	movw	r30, r24
    3f5c:	84 85       	ldd	r24, Z+12	; 0x0c
    3f5e:	95 85       	ldd	r25, Z+13	; 0x0d
    3f60:	a6 85       	ldd	r26, Z+14	; 0x0e
    3f62:	b7 85       	ldd	r27, Z+15	; 0x0f
    3f64:	89 2b       	or	r24, r25
    3f66:	8a 2b       	or	r24, r26
    3f68:	8b 2b       	or	r24, r27
    3f6a:	61 f5       	brne	.+88     	;  0x3fc4
    3f6c:	29 81       	ldd	r18, Y+1	; 0x01
    3f6e:	3a 81       	ldd	r19, Y+2	; 0x02
    3f70:	84 e5       	ldi	r24, 0x54	; 84
    3f72:	90 e0       	ldi	r25, 0x00	; 0
    3f74:	a0 e0       	ldi	r26, 0x00	; 0
    3f76:	b0 e0       	ldi	r27, 0x00	; 0
    3f78:	f9 01       	movw	r30, r18
    3f7a:	80 83       	st	Z, r24
    3f7c:	91 83       	std	Z+1, r25	; 0x01
    3f7e:	a2 83       	std	Z+2, r26	; 0x02
    3f80:	b3 83       	std	Z+3, r27	; 0x03
    3f82:	29 81       	ldd	r18, Y+1	; 0x01
    3f84:	3a 81       	ldd	r19, Y+2	; 0x02
    3f86:	89 e4       	ldi	r24, 0x49	; 73
    3f88:	90 e0       	ldi	r25, 0x00	; 0
    3f8a:	a0 e0       	ldi	r26, 0x00	; 0
    3f8c:	b0 e0       	ldi	r27, 0x00	; 0
    3f8e:	f9 01       	movw	r30, r18
    3f90:	84 83       	std	Z+4, r24	; 0x04
    3f92:	95 83       	std	Z+5, r25	; 0x05
    3f94:	a6 83       	std	Z+6, r26	; 0x06
    3f96:	b7 83       	std	Z+7, r27	; 0x07
    3f98:	29 81       	ldd	r18, Y+1	; 0x01
    3f9a:	3a 81       	ldd	r19, Y+2	; 0x02
    3f9c:	8e e4       	ldi	r24, 0x4E	; 78
    3f9e:	90 e0       	ldi	r25, 0x00	; 0
    3fa0:	a0 e0       	ldi	r26, 0x00	; 0
    3fa2:	b0 e0       	ldi	r27, 0x00	; 0
    3fa4:	f9 01       	movw	r30, r18
    3fa6:	80 87       	std	Z+8, r24	; 0x08
    3fa8:	91 87       	std	Z+9, r25	; 0x09
    3faa:	a2 87       	std	Z+10, r26	; 0x0a
    3fac:	b3 87       	std	Z+11, r27	; 0x0b
    3fae:	29 81       	ldd	r18, Y+1	; 0x01
    3fb0:	3a 81       	ldd	r19, Y+2	; 0x02
    3fb2:	89 e5       	ldi	r24, 0x59	; 89
    3fb4:	90 e0       	ldi	r25, 0x00	; 0
    3fb6:	a0 e0       	ldi	r26, 0x00	; 0
    3fb8:	b0 e0       	ldi	r27, 0x00	; 0
    3fba:	f9 01       	movw	r30, r18
    3fbc:	84 87       	std	Z+12, r24	; 0x0c
    3fbe:	95 87       	std	Z+13, r25	; 0x0d
    3fc0:	a6 87       	std	Z+14, r26	; 0x0e
    3fc2:	b7 87       	std	Z+15, r27	; 0x0f
    3fc4:	0f 90       	pop	r0
    3fc6:	0f 90       	pop	r0
    3fc8:	df 91       	pop	r29
    3fca:	cf 91       	pop	r28
    3fcc:	08 95       	ret
    3fce:	af 92       	push	r10
    3fd0:	bf 92       	push	r11
    3fd2:	cf 92       	push	r12
    3fd4:	df 92       	push	r13
    3fd6:	ef 92       	push	r14
    3fd8:	ff 92       	push	r15
    3fda:	0f 93       	push	r16
    3fdc:	1f 93       	push	r17
    3fde:	cf 93       	push	r28
    3fe0:	df 93       	push	r29
    3fe2:	cd b7       	in	r28, 0x3d	; 61
    3fe4:	de b7       	in	r29, 0x3e	; 62
    3fe6:	2c 97       	sbiw	r28, 0x0c	; 12
    3fe8:	cd bf       	out	0x3d, r28	; 61
    3fea:	de bf       	out	0x3e, r29	; 62
    3fec:	8d 83       	std	Y+5, r24	; 0x05
    3fee:	9e 83       	std	Y+6, r25	; 0x06
    3ff0:	4f 83       	std	Y+7, r20	; 0x07
    3ff2:	58 87       	std	Y+8, r21	; 0x08
    3ff4:	69 87       	std	Y+9, r22	; 0x09
    3ff6:	7a 87       	std	Y+10, r23	; 0x0a
    3ff8:	2d 81       	ldd	r18, Y+5	; 0x05
    3ffa:	3e 81       	ldd	r19, Y+6	; 0x06
    3ffc:	8f 81       	ldd	r24, Y+7	; 0x07
    3ffe:	98 85       	ldd	r25, Y+8	; 0x08
    4000:	a9 85       	ldd	r26, Y+9	; 0x09
    4002:	ba 85       	ldd	r27, Y+10	; 0x0a
    4004:	f9 01       	movw	r30, r18
    4006:	80 83       	st	Z, r24
    4008:	91 83       	std	Z+1, r25	; 0x01
    400a:	a2 83       	std	Z+2, r26	; 0x02
    400c:	b3 83       	std	Z+3, r27	; 0x03
    400e:	8d 81       	ldd	r24, Y+5	; 0x05
    4010:	9e 81       	ldd	r25, Y+6	; 0x06
    4012:	fc 01       	movw	r30, r24
    4014:	80 89       	ldd	r24, Z+16	; 0x10
    4016:	91 89       	ldd	r25, Z+17	; 0x11
    4018:	a2 89       	ldd	r26, Z+18	; 0x12
    401a:	b3 89       	ldd	r27, Z+19	; 0x13
    401c:	2d 81       	ldd	r18, Y+5	; 0x05
    401e:	3e 81       	ldd	r19, Y+6	; 0x06
    4020:	f9 01       	movw	r30, r18
    4022:	84 83       	std	Z+4, r24	; 0x04
    4024:	95 83       	std	Z+5, r25	; 0x05
    4026:	a6 83       	std	Z+6, r26	; 0x06
    4028:	b7 83       	std	Z+7, r27	; 0x07
    402a:	8d 81       	ldd	r24, Y+5	; 0x05
    402c:	9e 81       	ldd	r25, Y+6	; 0x06
    402e:	fc 01       	movw	r30, r24
    4030:	84 89       	ldd	r24, Z+20	; 0x14
    4032:	95 89       	ldd	r25, Z+21	; 0x15
    4034:	a6 89       	ldd	r26, Z+22	; 0x16
    4036:	b7 89       	ldd	r27, Z+23	; 0x17
    4038:	2d 81       	ldd	r18, Y+5	; 0x05
    403a:	3e 81       	ldd	r19, Y+6	; 0x06
    403c:	f9 01       	movw	r30, r18
    403e:	80 87       	std	Z+8, r24	; 0x08
    4040:	91 87       	std	Z+9, r25	; 0x09
    4042:	a2 87       	std	Z+10, r26	; 0x0a
    4044:	b3 87       	std	Z+11, r27	; 0x0b
    4046:	8d 81       	ldd	r24, Y+5	; 0x05
    4048:	9e 81       	ldd	r25, Y+6	; 0x06
    404a:	fc 01       	movw	r30, r24
    404c:	80 8d       	ldd	r24, Z+24	; 0x18
    404e:	91 8d       	ldd	r25, Z+25	; 0x19
    4050:	a2 8d       	ldd	r26, Z+26	; 0x1a
    4052:	b3 8d       	ldd	r27, Z+27	; 0x1b
    4054:	2d 81       	ldd	r18, Y+5	; 0x05
    4056:	3e 81       	ldd	r19, Y+6	; 0x06
    4058:	f9 01       	movw	r30, r18
    405a:	84 87       	std	Z+12, r24	; 0x0c
    405c:	95 87       	std	Z+13, r25	; 0x0d
    405e:	a6 87       	std	Z+14, r26	; 0x0e
    4060:	b7 87       	std	Z+15, r27	; 0x0f
    4062:	81 e0       	ldi	r24, 0x01	; 1
    4064:	90 e0       	ldi	r25, 0x00	; 0
    4066:	89 83       	std	Y+1, r24	; 0x01
    4068:	9a 83       	std	Y+2, r25	; 0x02
    406a:	75 c0       	rjmp	.+234    	;  0x4156
    406c:	89 81       	ldd	r24, Y+1	; 0x01
    406e:	9a 81       	ldd	r25, Y+2	; 0x02
    4070:	fc 01       	movw	r30, r24
    4072:	e3 70       	andi	r30, 0x03	; 3
    4074:	ff 27       	eor	r31, r31
    4076:	eb 87       	std	Y+11, r30	; 0x0b
    4078:	fc 87       	std	Y+12, r31	; 0x0c
    407a:	89 81       	ldd	r24, Y+1	; 0x01
    407c:	9a 81       	ldd	r25, Y+2	; 0x02
    407e:	83 70       	andi	r24, 0x03	; 3
    4080:	99 27       	eor	r25, r25
    4082:	2d 81       	ldd	r18, Y+5	; 0x05
    4084:	3e 81       	ldd	r19, Y+6	; 0x06
    4086:	88 0f       	add	r24, r24
    4088:	99 1f       	adc	r25, r25
    408a:	88 0f       	add	r24, r24
    408c:	99 1f       	adc	r25, r25
    408e:	82 0f       	add	r24, r18
    4090:	93 1f       	adc	r25, r19
    4092:	dc 01       	movw	r26, r24
    4094:	ed 90       	ld	r14, X+
    4096:	fd 90       	ld	r15, X+
    4098:	0d 91       	ld	r16, X+
    409a:	1c 91       	ld	r17, X
    409c:	89 81       	ldd	r24, Y+1	; 0x01
    409e:	9a 81       	ldd	r25, Y+2	; 0x02
    40a0:	5c 01       	movw	r10, r24
    40a2:	99 0f       	add	r25, r25
    40a4:	cc 08       	sbc	r12, r12
    40a6:	dd 08       	sbc	r13, r13
    40a8:	89 81       	ldd	r24, Y+1	; 0x01
    40aa:	9a 81       	ldd	r25, Y+2	; 0x02
    40ac:	01 97       	sbiw	r24, 0x01	; 1
    40ae:	83 70       	andi	r24, 0x03	; 3
    40b0:	99 27       	eor	r25, r25
    40b2:	2d 81       	ldd	r18, Y+5	; 0x05
    40b4:	3e 81       	ldd	r19, Y+6	; 0x06
    40b6:	88 0f       	add	r24, r24
    40b8:	99 1f       	adc	r25, r25
    40ba:	88 0f       	add	r24, r24
    40bc:	99 1f       	adc	r25, r25
    40be:	82 0f       	add	r24, r18
    40c0:	93 1f       	adc	r25, r19
    40c2:	fc 01       	movw	r30, r24
    40c4:	20 81       	ld	r18, Z
    40c6:	31 81       	ldd	r19, Z+1	; 0x01
    40c8:	42 81       	ldd	r20, Z+2	; 0x02
    40ca:	53 81       	ldd	r21, Z+3	; 0x03
    40cc:	89 81       	ldd	r24, Y+1	; 0x01
    40ce:	9a 81       	ldd	r25, Y+2	; 0x02
    40d0:	01 97       	sbiw	r24, 0x01	; 1
    40d2:	83 70       	andi	r24, 0x03	; 3
    40d4:	99 27       	eor	r25, r25
    40d6:	6d 81       	ldd	r22, Y+5	; 0x05
    40d8:	7e 81       	ldd	r23, Y+6	; 0x06
    40da:	88 0f       	add	r24, r24
    40dc:	99 1f       	adc	r25, r25
    40de:	88 0f       	add	r24, r24
    40e0:	99 1f       	adc	r25, r25
    40e2:	86 0f       	add	r24, r22
    40e4:	97 1f       	adc	r25, r23
    40e6:	fc 01       	movw	r30, r24
    40e8:	80 81       	ld	r24, Z
    40ea:	91 81       	ldd	r25, Z+1	; 0x01
    40ec:	a2 81       	ldd	r26, Z+2	; 0x02
    40ee:	b3 81       	ldd	r27, Z+3	; 0x03
    40f0:	07 2e       	mov	r0, r23
    40f2:	7e e1       	ldi	r23, 0x1E	; 30
    40f4:	b6 95       	lsr	r27
    40f6:	a7 95       	ror	r26
    40f8:	97 95       	ror	r25
    40fa:	87 95       	ror	r24
    40fc:	7a 95       	dec	r23
    40fe:	d1 f7       	brne	.-12     	;  0x40f4
    4100:	70 2d       	mov	r23, r0
    4102:	82 27       	eor	r24, r18
    4104:	93 27       	eor	r25, r19
    4106:	a4 27       	eor	r26, r20
    4108:	b5 27       	eor	r27, r21
    410a:	9c 01       	movw	r18, r24
    410c:	ad 01       	movw	r20, r26
    410e:	65 e6       	ldi	r22, 0x65	; 101
    4110:	79 e8       	ldi	r23, 0x89	; 137
    4112:	87 e0       	ldi	r24, 0x07	; 7
    4114:	9c e6       	ldi	r25, 0x6C	; 108
    4116:	0e 94 b3 24 	call	0x4966	;  0x4966
    411a:	dc 01       	movw	r26, r24
    411c:	cb 01       	movw	r24, r22
    411e:	8a 0d       	add	r24, r10
    4120:	9b 1d       	adc	r25, r11
    4122:	ac 1d       	adc	r26, r12
    4124:	bd 1d       	adc	r27, r13
    4126:	8e 25       	eor	r24, r14
    4128:	9f 25       	eor	r25, r15
    412a:	a0 27       	eor	r26, r16
    412c:	b1 27       	eor	r27, r17
    412e:	4d 81       	ldd	r20, Y+5	; 0x05
    4130:	5e 81       	ldd	r21, Y+6	; 0x06
    4132:	2b 85       	ldd	r18, Y+11	; 0x0b
    4134:	3c 85       	ldd	r19, Y+12	; 0x0c
    4136:	22 0f       	add	r18, r18
    4138:	33 1f       	adc	r19, r19
    413a:	22 0f       	add	r18, r18
    413c:	33 1f       	adc	r19, r19
    413e:	24 0f       	add	r18, r20
    4140:	35 1f       	adc	r19, r21
    4142:	f9 01       	movw	r30, r18
    4144:	80 83       	st	Z, r24
    4146:	91 83       	std	Z+1, r25	; 0x01
    4148:	a2 83       	std	Z+2, r26	; 0x02
    414a:	b3 83       	std	Z+3, r27	; 0x03
    414c:	89 81       	ldd	r24, Y+1	; 0x01
    414e:	9a 81       	ldd	r25, Y+2	; 0x02
    4150:	01 96       	adiw	r24, 0x01	; 1
    4152:	89 83       	std	Y+1, r24	; 0x01
    4154:	9a 83       	std	Y+2, r25	; 0x02
    4156:	89 81       	ldd	r24, Y+1	; 0x01
    4158:	9a 81       	ldd	r25, Y+2	; 0x02
    415a:	08 97       	sbiw	r24, 0x08	; 8
    415c:	0c f4       	brge	.+2      	;  0x4160
    415e:	86 cf       	rjmp	.-244    	;  0x406c
    4160:	8d 81       	ldd	r24, Y+5	; 0x05
    4162:	9e 81       	ldd	r25, Y+6	; 0x06
    4164:	0e 94 7f 1f 	call	0x3efe	;  0x3efe
    4168:	1b 82       	std	Y+3, r1	; 0x03
    416a:	1c 82       	std	Y+4, r1	; 0x04
    416c:	09 c0       	rjmp	.+18     	;  0x4180
    416e:	8d 81       	ldd	r24, Y+5	; 0x05
    4170:	9e 81       	ldd	r25, Y+6	; 0x06
    4172:	0e 94 db 1d 	call	0x3bb6	;  0x3bb6
    4176:	8b 81       	ldd	r24, Y+3	; 0x03
    4178:	9c 81       	ldd	r25, Y+4	; 0x04
    417a:	01 96       	adiw	r24, 0x01	; 1
    417c:	8b 83       	std	Y+3, r24	; 0x03
    417e:	9c 83       	std	Y+4, r25	; 0x04
    4180:	8b 81       	ldd	r24, Y+3	; 0x03
    4182:	9c 81       	ldd	r25, Y+4	; 0x04
    4184:	08 97       	sbiw	r24, 0x08	; 8
    4186:	9c f3       	brlt	.-26     	;  0x416e
    4188:	2c 96       	adiw	r28, 0x0c	; 12
    418a:	cd bf       	out	0x3d, r28	; 61
    418c:	de bf       	out	0x3e, r29	; 62
    418e:	df 91       	pop	r29
    4190:	cf 91       	pop	r28
    4192:	1f 91       	pop	r17
    4194:	0f 91       	pop	r16
    4196:	ff 90       	pop	r15
    4198:	ef 90       	pop	r14
    419a:	df 90       	pop	r13
    419c:	cf 90       	pop	r12
    419e:	bf 90       	pop	r11
    41a0:	af 90       	pop	r10
    41a2:	08 95       	ret
    41a4:	cf 93       	push	r28
    41a6:	df 93       	push	r29
    41a8:	cd b7       	in	r28, 0x3d	; 61
    41aa:	de b7       	in	r29, 0x3e	; 62
    41ac:	2c 97       	sbiw	r28, 0x0c	; 12
    41ae:	cd bf       	out	0x3d, r28	; 61
    41b0:	de bf       	out	0x3e, r29	; 62
    41b2:	8f 83       	std	Y+7, r24	; 0x07
    41b4:	98 87       	std	Y+8, r25	; 0x08
    41b6:	69 87       	std	Y+9, r22	; 0x09
    41b8:	7a 87       	std	Y+10, r23	; 0x0a
    41ba:	4b 87       	std	Y+11, r20	; 0x0b
    41bc:	5c 87       	std	Y+12, r21	; 0x0c
    41be:	19 82       	std	Y+1, r1	; 0x01
    41c0:	1a 82       	std	Y+2, r1	; 0x02
    41c2:	1b 82       	std	Y+3, r1	; 0x03
    41c4:	1c 82       	std	Y+4, r1	; 0x04
    41c6:	1d 82       	std	Y+5, r1	; 0x05
    41c8:	1e 82       	std	Y+6, r1	; 0x06
    41ca:	20 c0       	rjmp	.+64     	;  0x420c
    41cc:	8d 81       	ldd	r24, Y+5	; 0x05
    41ce:	9e 81       	ldd	r25, Y+6	; 0x06
    41d0:	88 0f       	add	r24, r24
    41d2:	99 1f       	adc	r25, r25
    41d4:	88 0f       	add	r24, r24
    41d6:	99 1f       	adc	r25, r25
    41d8:	29 85       	ldd	r18, Y+9	; 0x09
    41da:	3a 85       	ldd	r19, Y+10	; 0x0a
    41dc:	82 0f       	add	r24, r18
    41de:	93 1f       	adc	r25, r19
    41e0:	fc 01       	movw	r30, r24
    41e2:	80 81       	ld	r24, Z
    41e4:	91 81       	ldd	r25, Z+1	; 0x01
    41e6:	a2 81       	ldd	r26, Z+2	; 0x02
    41e8:	b3 81       	ldd	r27, Z+3	; 0x03
    41ea:	29 81       	ldd	r18, Y+1	; 0x01
    41ec:	3a 81       	ldd	r19, Y+2	; 0x02
    41ee:	4b 81       	ldd	r20, Y+3	; 0x03
    41f0:	5c 81       	ldd	r21, Y+4	; 0x04
    41f2:	82 27       	eor	r24, r18
    41f4:	93 27       	eor	r25, r19
    41f6:	a4 27       	eor	r26, r20
    41f8:	b5 27       	eor	r27, r21
    41fa:	89 83       	std	Y+1, r24	; 0x01
    41fc:	9a 83       	std	Y+2, r25	; 0x02
    41fe:	ab 83       	std	Y+3, r26	; 0x03
    4200:	bc 83       	std	Y+4, r27	; 0x04
    4202:	8d 81       	ldd	r24, Y+5	; 0x05
    4204:	9e 81       	ldd	r25, Y+6	; 0x06
    4206:	01 96       	adiw	r24, 0x01	; 1
    4208:	8d 83       	std	Y+5, r24	; 0x05
    420a:	9e 83       	std	Y+6, r25	; 0x06
    420c:	2d 81       	ldd	r18, Y+5	; 0x05
    420e:	3e 81       	ldd	r19, Y+6	; 0x06
    4210:	8b 85       	ldd	r24, Y+11	; 0x0b
    4212:	9c 85       	ldd	r25, Y+12	; 0x0c
    4214:	28 17       	cp	r18, r24
    4216:	39 07       	cpc	r19, r25
    4218:	cc f2       	brlt	.-78     	;  0x41cc
    421a:	89 81       	ldd	r24, Y+1	; 0x01
    421c:	9a 81       	ldd	r25, Y+2	; 0x02
    421e:	ab 81       	ldd	r26, Y+3	; 0x03
    4220:	bc 81       	ldd	r27, Y+4	; 0x04
    4222:	2f 81       	ldd	r18, Y+7	; 0x07
    4224:	38 85       	ldd	r19, Y+8	; 0x08
    4226:	ac 01       	movw	r20, r24
    4228:	bd 01       	movw	r22, r26
    422a:	c9 01       	movw	r24, r18
    422c:	0e 94 e7 1f 	call	0x3fce	;  0x3fce
    4230:	2c 96       	adiw	r28, 0x0c	; 12
    4232:	cd bf       	out	0x3d, r28	; 61
    4234:	de bf       	out	0x3e, r29	; 62
    4236:	df 91       	pop	r29
    4238:	cf 91       	pop	r28
    423a:	08 95       	ret
    423c:	ef 92       	push	r14
    423e:	ff 92       	push	r15
    4240:	0f 93       	push	r16
    4242:	1f 93       	push	r17
    4244:	cf 93       	push	r28
    4246:	df 93       	push	r29
    4248:	00 d0       	rcall	.+0      	;  0x424a
    424a:	00 d0       	rcall	.+0      	;  0x424c
    424c:	cd b7       	in	r28, 0x3d	; 61
    424e:	de b7       	in	r29, 0x3e	; 62
    4250:	8d 83       	std	Y+5, r24	; 0x05
    4252:	9e 83       	std	Y+6, r25	; 0x06
    4254:	8d 81       	ldd	r24, Y+5	; 0x05
    4256:	9e 81       	ldd	r25, Y+6	; 0x06
    4258:	fc 01       	movw	r30, r24
    425a:	20 81       	ld	r18, Z
    425c:	31 81       	ldd	r19, Z+1	; 0x01
    425e:	42 81       	ldd	r20, Z+2	; 0x02
    4260:	53 81       	ldd	r21, Z+3	; 0x03
    4262:	8d 81       	ldd	r24, Y+5	; 0x05
    4264:	9e 81       	ldd	r25, Y+6	; 0x06
    4266:	fc 01       	movw	r30, r24
    4268:	84 81       	ldd	r24, Z+4	; 0x04
    426a:	95 81       	ldd	r25, Z+5	; 0x05
    426c:	a6 81       	ldd	r26, Z+6	; 0x06
    426e:	b7 81       	ldd	r27, Z+7	; 0x07
    4270:	7c 01       	movw	r14, r24
    4272:	8d 01       	movw	r16, r26
    4274:	68 94       	set
    4276:	14 f8       	bld	r1, 4
    4278:	16 95       	lsr	r17
    427a:	07 95       	ror	r16
    427c:	f7 94       	ror	r15
    427e:	e7 94       	ror	r14
    4280:	16 94       	lsr	r1
    4282:	d1 f7       	brne	.-12     	;  0x4278
    4284:	07 2e       	mov	r0, r23
    4286:	7b e1       	ldi	r23, 0x1B	; 27
    4288:	88 0f       	add	r24, r24
    428a:	99 1f       	adc	r25, r25
    428c:	aa 1f       	adc	r26, r26
    428e:	bb 1f       	adc	r27, r27
    4290:	7a 95       	dec	r23
    4292:	d1 f7       	brne	.-12     	;  0x4288
    4294:	70 2d       	mov	r23, r0
    4296:	8e 29       	or	r24, r14
    4298:	9f 29       	or	r25, r15
    429a:	a0 2b       	or	r26, r16
    429c:	b1 2b       	or	r27, r17
    429e:	79 01       	movw	r14, r18
    42a0:	8a 01       	movw	r16, r20
    42a2:	e8 1a       	sub	r14, r24
    42a4:	f9 0a       	sbc	r15, r25
    42a6:	0a 0b       	sbc	r16, r26
    42a8:	1b 0b       	sbc	r17, r27
    42aa:	d8 01       	movw	r26, r16
    42ac:	c7 01       	movw	r24, r14
    42ae:	89 83       	std	Y+1, r24	; 0x01
    42b0:	9a 83       	std	Y+2, r25	; 0x02
    42b2:	ab 83       	std	Y+3, r26	; 0x03
    42b4:	bc 83       	std	Y+4, r27	; 0x04
    42b6:	8d 81       	ldd	r24, Y+5	; 0x05
    42b8:	9e 81       	ldd	r25, Y+6	; 0x06
    42ba:	fc 01       	movw	r30, r24
    42bc:	24 81       	ldd	r18, Z+4	; 0x04
    42be:	35 81       	ldd	r19, Z+5	; 0x05
    42c0:	46 81       	ldd	r20, Z+6	; 0x06
    42c2:	57 81       	ldd	r21, Z+7	; 0x07
    42c4:	8d 81       	ldd	r24, Y+5	; 0x05
    42c6:	9e 81       	ldd	r25, Y+6	; 0x06
    42c8:	fc 01       	movw	r30, r24
    42ca:	80 85       	ldd	r24, Z+8	; 0x08
    42cc:	91 85       	ldd	r25, Z+9	; 0x09
    42ce:	a2 85       	ldd	r26, Z+10	; 0x0a
    42d0:	b3 85       	ldd	r27, Z+11	; 0x0b
    42d2:	7c 01       	movw	r14, r24
    42d4:	8d 01       	movw	r16, r26
    42d6:	0d 2e       	mov	r0, r29
    42d8:	df e0       	ldi	r29, 0x0F	; 15
    42da:	16 95       	lsr	r17
    42dc:	07 95       	ror	r16
    42de:	f7 94       	ror	r15
    42e0:	e7 94       	ror	r14
    42e2:	da 95       	dec	r29
    42e4:	d1 f7       	brne	.-12     	;  0x42da
    42e6:	d0 2d       	mov	r29, r0
    42e8:	07 2e       	mov	r0, r23
    42ea:	71 e1       	ldi	r23, 0x11	; 17
    42ec:	88 0f       	add	r24, r24
    42ee:	99 1f       	adc	r25, r25
    42f0:	aa 1f       	adc	r26, r26
    42f2:	bb 1f       	adc	r27, r27
    42f4:	7a 95       	dec	r23
    42f6:	d1 f7       	brne	.-12     	;  0x42ec
    42f8:	70 2d       	mov	r23, r0
    42fa:	8e 29       	or	r24, r14
    42fc:	9f 29       	or	r25, r15
    42fe:	a0 2b       	or	r26, r16
    4300:	b1 2b       	or	r27, r17
    4302:	82 27       	eor	r24, r18
    4304:	93 27       	eor	r25, r19
    4306:	a4 27       	eor	r26, r20
    4308:	b5 27       	eor	r27, r21
    430a:	2d 81       	ldd	r18, Y+5	; 0x05
    430c:	3e 81       	ldd	r19, Y+6	; 0x06
    430e:	f9 01       	movw	r30, r18
    4310:	80 83       	st	Z, r24
    4312:	91 83       	std	Z+1, r25	; 0x01
    4314:	a2 83       	std	Z+2, r26	; 0x02
    4316:	b3 83       	std	Z+3, r27	; 0x03
    4318:	8d 81       	ldd	r24, Y+5	; 0x05
    431a:	9e 81       	ldd	r25, Y+6	; 0x06
    431c:	fc 01       	movw	r30, r24
    431e:	20 85       	ldd	r18, Z+8	; 0x08
    4320:	31 85       	ldd	r19, Z+9	; 0x09
    4322:	42 85       	ldd	r20, Z+10	; 0x0a
    4324:	53 85       	ldd	r21, Z+11	; 0x0b
    4326:	8d 81       	ldd	r24, Y+5	; 0x05
    4328:	9e 81       	ldd	r25, Y+6	; 0x06
    432a:	fc 01       	movw	r30, r24
    432c:	84 85       	ldd	r24, Z+12	; 0x0c
    432e:	95 85       	ldd	r25, Z+13	; 0x0d
    4330:	a6 85       	ldd	r26, Z+14	; 0x0e
    4332:	b7 85       	ldd	r27, Z+15	; 0x0f
    4334:	82 0f       	add	r24, r18
    4336:	93 1f       	adc	r25, r19
    4338:	a4 1f       	adc	r26, r20
    433a:	b5 1f       	adc	r27, r21
    433c:	2d 81       	ldd	r18, Y+5	; 0x05
    433e:	3e 81       	ldd	r19, Y+6	; 0x06
    4340:	f9 01       	movw	r30, r18
    4342:	84 83       	std	Z+4, r24	; 0x04
    4344:	95 83       	std	Z+5, r25	; 0x05
    4346:	a6 83       	std	Z+6, r26	; 0x06
    4348:	b7 83       	std	Z+7, r27	; 0x07
    434a:	8d 81       	ldd	r24, Y+5	; 0x05
    434c:	9e 81       	ldd	r25, Y+6	; 0x06
    434e:	fc 01       	movw	r30, r24
    4350:	24 85       	ldd	r18, Z+12	; 0x0c
    4352:	35 85       	ldd	r19, Z+13	; 0x0d
    4354:	46 85       	ldd	r20, Z+14	; 0x0e
    4356:	57 85       	ldd	r21, Z+15	; 0x0f
    4358:	89 81       	ldd	r24, Y+1	; 0x01
    435a:	9a 81       	ldd	r25, Y+2	; 0x02
    435c:	ab 81       	ldd	r26, Y+3	; 0x03
    435e:	bc 81       	ldd	r27, Y+4	; 0x04
    4360:	82 0f       	add	r24, r18
    4362:	93 1f       	adc	r25, r19
    4364:	a4 1f       	adc	r26, r20
    4366:	b5 1f       	adc	r27, r21
    4368:	2d 81       	ldd	r18, Y+5	; 0x05
    436a:	3e 81       	ldd	r19, Y+6	; 0x06
    436c:	f9 01       	movw	r30, r18
    436e:	80 87       	std	Z+8, r24	; 0x08
    4370:	91 87       	std	Z+9, r25	; 0x09
    4372:	a2 87       	std	Z+10, r26	; 0x0a
    4374:	b3 87       	std	Z+11, r27	; 0x0b
    4376:	8d 81       	ldd	r24, Y+5	; 0x05
    4378:	9e 81       	ldd	r25, Y+6	; 0x06
    437a:	fc 01       	movw	r30, r24
    437c:	20 81       	ld	r18, Z
    437e:	31 81       	ldd	r19, Z+1	; 0x01
    4380:	42 81       	ldd	r20, Z+2	; 0x02
    4382:	53 81       	ldd	r21, Z+3	; 0x03
    4384:	89 81       	ldd	r24, Y+1	; 0x01
    4386:	9a 81       	ldd	r25, Y+2	; 0x02
    4388:	ab 81       	ldd	r26, Y+3	; 0x03
    438a:	bc 81       	ldd	r27, Y+4	; 0x04
    438c:	82 0f       	add	r24, r18
    438e:	93 1f       	adc	r25, r19
    4390:	a4 1f       	adc	r26, r20
    4392:	b5 1f       	adc	r27, r21
    4394:	2d 81       	ldd	r18, Y+5	; 0x05
    4396:	3e 81       	ldd	r19, Y+6	; 0x06
    4398:	f9 01       	movw	r30, r18
    439a:	84 87       	std	Z+12, r24	; 0x0c
    439c:	95 87       	std	Z+13, r25	; 0x0d
    439e:	a6 87       	std	Z+14, r26	; 0x0e
    43a0:	b7 87       	std	Z+15, r27	; 0x0f
    43a2:	8d 81       	ldd	r24, Y+5	; 0x05
    43a4:	9e 81       	ldd	r25, Y+6	; 0x06
    43a6:	fc 01       	movw	r30, r24
    43a8:	84 85       	ldd	r24, Z+12	; 0x0c
    43aa:	95 85       	ldd	r25, Z+13	; 0x0d
    43ac:	a6 85       	ldd	r26, Z+14	; 0x0e
    43ae:	b7 85       	ldd	r27, Z+15	; 0x0f
    43b0:	bc 01       	movw	r22, r24
    43b2:	cd 01       	movw	r24, r26
    43b4:	26 96       	adiw	r28, 0x06	; 6
    43b6:	cd bf       	out	0x3d, r28	; 61
    43b8:	de bf       	out	0x3e, r29	; 62
    43ba:	df 91       	pop	r29
    43bc:	cf 91       	pop	r28
    43be:	1f 91       	pop	r17
    43c0:	0f 91       	pop	r16
    43c2:	ff 90       	pop	r15
    43c4:	ef 90       	pop	r14
    43c6:	08 95       	ret
    43c8:	cf 93       	push	r28
    43ca:	df 93       	push	r29
    43cc:	cd b7       	in	r28, 0x3d	; 61
    43ce:	de b7       	in	r29, 0x3e	; 62
    43d0:	2a 97       	sbiw	r28, 0x0a	; 10
    43d2:	cd bf       	out	0x3d, r28	; 61
    43d4:	de bf       	out	0x3e, r29	; 62
    43d6:	8d 83       	std	Y+5, r24	; 0x05
    43d8:	9e 83       	std	Y+6, r25	; 0x06
    43da:	4f 83       	std	Y+7, r20	; 0x07
    43dc:	58 87       	std	Y+8, r21	; 0x08
    43de:	69 87       	std	Y+9, r22	; 0x09
    43e0:	7a 87       	std	Y+10, r23	; 0x0a
    43e2:	2d 81       	ldd	r18, Y+5	; 0x05
    43e4:	3e 81       	ldd	r19, Y+6	; 0x06
    43e6:	8f e2       	ldi	r24, 0x2F	; 47
    43e8:	94 ea       	ldi	r25, 0xA4	; 164
    43ea:	a2 ec       	ldi	r26, 0xC2	; 194
    43ec:	b4 e8       	ldi	r27, 0x84	; 132
    43ee:	f9 01       	movw	r30, r18
    43f0:	80 83       	st	Z, r24
    43f2:	91 83       	std	Z+1, r25	; 0x01
    43f4:	a2 83       	std	Z+2, r26	; 0x02
    43f6:	b3 83       	std	Z+3, r27	; 0x03
    43f8:	2d 81       	ldd	r18, Y+5	; 0x05
    43fa:	3e 81       	ldd	r19, Y+6	; 0x06
    43fc:	8f 81       	ldd	r24, Y+7	; 0x07
    43fe:	98 85       	ldd	r25, Y+8	; 0x08
    4400:	a9 85       	ldd	r26, Y+9	; 0x09
    4402:	ba 85       	ldd	r27, Y+10	; 0x0a
    4404:	f9 01       	movw	r30, r18
    4406:	84 87       	std	Z+12, r24	; 0x0c
    4408:	95 87       	std	Z+13, r25	; 0x0d
    440a:	a6 87       	std	Z+14, r26	; 0x0e
    440c:	b7 87       	std	Z+15, r27	; 0x0f
    440e:	8d 81       	ldd	r24, Y+5	; 0x05
    4410:	9e 81       	ldd	r25, Y+6	; 0x06
    4412:	fc 01       	movw	r30, r24
    4414:	84 85       	ldd	r24, Z+12	; 0x0c
    4416:	95 85       	ldd	r25, Z+13	; 0x0d
    4418:	a6 85       	ldd	r26, Z+14	; 0x0e
    441a:	b7 85       	ldd	r27, Z+15	; 0x0f
    441c:	2d 81       	ldd	r18, Y+5	; 0x05
    441e:	3e 81       	ldd	r19, Y+6	; 0x06
    4420:	f9 01       	movw	r30, r18
    4422:	80 87       	std	Z+8, r24	; 0x08
    4424:	91 87       	std	Z+9, r25	; 0x09
    4426:	a2 87       	std	Z+10, r26	; 0x0a
    4428:	b3 87       	std	Z+11, r27	; 0x0b
    442a:	8d 81       	ldd	r24, Y+5	; 0x05
    442c:	9e 81       	ldd	r25, Y+6	; 0x06
    442e:	fc 01       	movw	r30, r24
    4430:	80 85       	ldd	r24, Z+8	; 0x08
    4432:	91 85       	ldd	r25, Z+9	; 0x09
    4434:	a2 85       	ldd	r26, Z+10	; 0x0a
    4436:	b3 85       	ldd	r27, Z+11	; 0x0b
    4438:	2d 81       	ldd	r18, Y+5	; 0x05
    443a:	3e 81       	ldd	r19, Y+6	; 0x06
    443c:	f9 01       	movw	r30, r18
    443e:	84 83       	std	Z+4, r24	; 0x04
    4440:	95 83       	std	Z+5, r25	; 0x05
    4442:	a6 83       	std	Z+6, r26	; 0x06
    4444:	b7 83       	std	Z+7, r27	; 0x07
    4446:	19 82       	std	Y+1, r1	; 0x01
    4448:	1a 82       	std	Y+2, r1	; 0x02
    444a:	1b 82       	std	Y+3, r1	; 0x03
    444c:	1c 82       	std	Y+4, r1	; 0x04
    444e:	0f c0       	rjmp	.+30     	;  0x446e
    4450:	8d 81       	ldd	r24, Y+5	; 0x05
    4452:	9e 81       	ldd	r25, Y+6	; 0x06
    4454:	0e 94 1e 21 	call	0x423c	;  0x423c
    4458:	89 81       	ldd	r24, Y+1	; 0x01
    445a:	9a 81       	ldd	r25, Y+2	; 0x02
    445c:	ab 81       	ldd	r26, Y+3	; 0x03
    445e:	bc 81       	ldd	r27, Y+4	; 0x04
    4460:	01 96       	adiw	r24, 0x01	; 1
    4462:	a1 1d       	adc	r26, r1
    4464:	b1 1d       	adc	r27, r1
    4466:	89 83       	std	Y+1, r24	; 0x01
    4468:	9a 83       	std	Y+2, r25	; 0x02
    446a:	ab 83       	std	Y+3, r26	; 0x03
    446c:	bc 83       	std	Y+4, r27	; 0x04
    446e:	89 81       	ldd	r24, Y+1	; 0x01
    4470:	9a 81       	ldd	r25, Y+2	; 0x02
    4472:	ab 81       	ldd	r26, Y+3	; 0x03
    4474:	bc 81       	ldd	r27, Y+4	; 0x04
    4476:	44 97       	sbiw	r24, 0x14	; 20
    4478:	a1 05       	cpc	r26, r1
    447a:	b1 05       	cpc	r27, r1
    447c:	48 f3       	brcs	.-46     	;  0x4450
    447e:	2a 96       	adiw	r28, 0x0a	; 10
    4480:	cd bf       	out	0x3d, r28	; 61
    4482:	de bf       	out	0x3e, r29	; 62
    4484:	df 91       	pop	r29
    4486:	cf 91       	pop	r28
    4488:	08 95       	ret
    448a:	cf 93       	push	r28
    448c:	df 93       	push	r29
    448e:	1f 92       	push	r1
    4490:	cd b7       	in	r28, 0x3d	; 61
    4492:	de b7       	in	r29, 0x3e	; 62
    4494:	89 83       	std	Y+1, r24	; 0x01
    4496:	89 81       	ldd	r24, Y+1	; 0x01
    4498:	8a 30       	cpi	r24, 0x0A	; 10
    449a:	18 f4       	brcc	.+6      	;  0x44a2
    449c:	89 81       	ldd	r24, Y+1	; 0x01
    449e:	80 5d       	subi	r24, 0xD0	; 208
    44a0:	02 c0       	rjmp	.+4      	;  0x44a6
    44a2:	89 81       	ldd	r24, Y+1	; 0x01
    44a4:	89 5a       	subi	r24, 0xA9	; 169
    44a6:	0f 90       	pop	r0
    44a8:	df 91       	pop	r29
    44aa:	cf 91       	pop	r28
    44ac:	08 95       	ret
    44ae:	cf 93       	push	r28
    44b0:	df 93       	push	r29
    44b2:	1f 92       	push	r1
    44b4:	cd b7       	in	r28, 0x3d	; 61
    44b6:	de b7       	in	r29, 0x3e	; 62
    44b8:	89 83       	std	Y+1, r24	; 0x01
    44ba:	89 81       	ldd	r24, Y+1	; 0x01
    44bc:	80 33       	cpi	r24, 0x30	; 48
    44be:	30 f0       	brcs	.+12     	;  0x44cc
    44c0:	89 81       	ldd	r24, Y+1	; 0x01
    44c2:	8a 33       	cpi	r24, 0x3A	; 58
    44c4:	18 f4       	brcc	.+6      	;  0x44cc
    44c6:	89 81       	ldd	r24, Y+1	; 0x01
    44c8:	80 53       	subi	r24, 0x30	; 48
    44ca:	13 c0       	rjmp	.+38     	;  0x44f2
    44cc:	89 81       	ldd	r24, Y+1	; 0x01
    44ce:	81 36       	cpi	r24, 0x61	; 97
    44d0:	30 f0       	brcs	.+12     	;  0x44de
    44d2:	89 81       	ldd	r24, Y+1	; 0x01
    44d4:	87 36       	cpi	r24, 0x67	; 103
    44d6:	18 f4       	brcc	.+6      	;  0x44de
    44d8:	89 81       	ldd	r24, Y+1	; 0x01
    44da:	87 55       	subi	r24, 0x57	; 87
    44dc:	0a c0       	rjmp	.+20     	;  0x44f2
    44de:	89 81       	ldd	r24, Y+1	; 0x01
    44e0:	81 34       	cpi	r24, 0x41	; 65
    44e2:	30 f0       	brcs	.+12     	;  0x44f0
    44e4:	89 81       	ldd	r24, Y+1	; 0x01
    44e6:	87 34       	cpi	r24, 0x47	; 71
    44e8:	18 f4       	brcc	.+6      	;  0x44f0
    44ea:	89 81       	ldd	r24, Y+1	; 0x01
    44ec:	87 53       	subi	r24, 0x37	; 55
    44ee:	01 c0       	rjmp	.+2      	;  0x44f2
    44f0:	80 e3       	ldi	r24, 0x30	; 48
    44f2:	0f 90       	pop	r0
    44f4:	df 91       	pop	r29
    44f6:	cf 91       	pop	r28
    44f8:	08 95       	ret
    44fa:	0f 93       	push	r16
    44fc:	1f 93       	push	r17
    44fe:	cf 93       	push	r28
    4500:	df 93       	push	r29
    4502:	cd b7       	in	r28, 0x3d	; 61
    4504:	de b7       	in	r29, 0x3e	; 62
    4506:	2b 97       	sbiw	r28, 0x0b	; 11
    4508:	cd bf       	out	0x3d, r28	; 61
    450a:	de bf       	out	0x3e, r29	; 62
    450c:	8b e8       	ldi	r24, 0x8B	; 139
    450e:	93 e0       	ldi	r25, 0x03	; 3
    4510:	8a 83       	std	Y+2, r24	; 0x02
    4512:	9b 83       	std	Y+3, r25	; 0x03
    4514:	8a 81       	ldd	r24, Y+2	; 0x02
    4516:	9b 81       	ldd	r25, Y+3	; 0x03
    4518:	9c 01       	movw	r18, r24
    451a:	f9 01       	movw	r30, r18
    451c:	85 91       	lpm	r24, Z+
    451e:	95 91       	lpm	r25, Z+
    4520:	a5 91       	lpm	r26, Z+
    4522:	b4 91       	lpm	r27, Z
    4524:	9f 01       	movw	r18, r30
    4526:	8c 83       	std	Y+4, r24	; 0x04
    4528:	9d 83       	std	Y+5, r25	; 0x05
    452a:	ae 83       	std	Y+6, r26	; 0x06
    452c:	bf 83       	std	Y+7, r27	; 0x07
    452e:	2a 83       	std	Y+2, r18	; 0x02
    4530:	3b 83       	std	Y+3, r19	; 0x03
    4532:	8c 81       	ldd	r24, Y+4	; 0x04
    4534:	9d 81       	ldd	r25, Y+5	; 0x05
    4536:	ae 81       	ldd	r26, Y+6	; 0x06
    4538:	bf 81       	ldd	r27, Y+7	; 0x07
    453a:	88 87       	std	Y+8, r24	; 0x08
    453c:	99 87       	std	Y+9, r25	; 0x09
    453e:	aa 87       	std	Y+10, r26	; 0x0a
    4540:	bb 87       	std	Y+11, r27	; 0x0b
    4542:	88 85       	ldd	r24, Y+8	; 0x08
    4544:	99 85       	ldd	r25, Y+9	; 0x09
    4546:	aa 85       	ldd	r26, Y+10	; 0x0a
    4548:	bb 85       	ldd	r27, Y+11	; 0x0b
    454a:	ac 01       	movw	r20, r24
    454c:	bd 01       	movw	r22, r26
    454e:	8f e5       	ldi	r24, 0x5F	; 95
    4550:	92 e2       	ldi	r25, 0x22	; 34
    4552:	0e 94 e4 21 	call	0x43c8	;  0x43c8
    4556:	18 86       	std	Y+8, r1	; 0x08
    4558:	19 86       	std	Y+9, r1	; 0x09
    455a:	1a 86       	std	Y+10, r1	; 0x0a
    455c:	1b 86       	std	Y+11, r1	; 0x0b
    455e:	19 82       	std	Y+1, r1	; 0x01
    4560:	18 c0       	rjmp	.+48     	;  0x4592
    4562:	89 81       	ldd	r24, Y+1	; 0x01
    4564:	88 2f       	mov	r24, r24
    4566:	90 e0       	ldi	r25, 0x00	; 0
    4568:	88 0f       	add	r24, r24
    456a:	99 1f       	adc	r25, r25
    456c:	88 0f       	add	r24, r24
    456e:	99 1f       	adc	r25, r25
    4570:	8c 01       	movw	r16, r24
    4572:	01 59       	subi	r16, 0x91	; 145
    4574:	1d 4d       	sbci	r17, 0xDD	; 221
    4576:	8f e5       	ldi	r24, 0x5F	; 95
    4578:	92 e2       	ldi	r25, 0x22	; 34
    457a:	0e 94 1e 21 	call	0x423c	;  0x423c
    457e:	dc 01       	movw	r26, r24
    4580:	cb 01       	movw	r24, r22
    4582:	f8 01       	movw	r30, r16
    4584:	80 83       	st	Z, r24
    4586:	91 83       	std	Z+1, r25	; 0x01
    4588:	a2 83       	std	Z+2, r26	; 0x02
    458a:	b3 83       	std	Z+3, r27	; 0x03
    458c:	89 81       	ldd	r24, Y+1	; 0x01
    458e:	8f 5f       	subi	r24, 0xFF	; 255
    4590:	89 83       	std	Y+1, r24	; 0x01
    4592:	89 81       	ldd	r24, Y+1	; 0x01
    4594:	88 30       	cpi	r24, 0x08	; 8
    4596:	28 f3       	brcs	.-54     	;  0x4562
    4598:	2b 96       	adiw	r28, 0x0b	; 11
    459a:	cd bf       	out	0x3d, r28	; 61
    459c:	de bf       	out	0x3e, r29	; 62
    459e:	df 91       	pop	r29
    45a0:	cf 91       	pop	r28
    45a2:	1f 91       	pop	r17
    45a4:	0f 91       	pop	r16
    45a6:	08 95       	ret
    45a8:	cf 93       	push	r28
    45aa:	df 93       	push	r29
    45ac:	1f 92       	push	r1
    45ae:	cd b7       	in	r28, 0x3d	; 61
    45b0:	de b7       	in	r29, 0x3e	; 62
    45b2:	89 83       	std	Y+1, r24	; 0x01
    45b4:	89 81       	ldd	r24, Y+1	; 0x01
    45b6:	80 93 5c 22 	sts	0x225C, r24
    45ba:	0f 90       	pop	r0
    45bc:	df 91       	pop	r29
    45be:	cf 91       	pop	r28
    45c0:	08 95       	ret
    45c2:	cf 93       	push	r28
    45c4:	df 93       	push	r29
    45c6:	cd b7       	in	r28, 0x3d	; 61
    45c8:	de b7       	in	r29, 0x3e	; 62
    45ca:	28 97       	sbiw	r28, 0x08	; 8
    45cc:	cd bf       	out	0x3d, r28	; 61
    45ce:	de bf       	out	0x3e, r29	; 62
    45d0:	8f 83       	std	Y+7, r24	; 0x07
    45d2:	98 87       	std	Y+8, r25	; 0x08
    45d4:	1a 82       	std	Y+2, r1	; 0x02
    45d6:	19 82       	std	Y+1, r1	; 0x01
    45d8:	30 c0       	rjmp	.+96     	;  0x463a
    45da:	89 81       	ldd	r24, Y+1	; 0x01
    45dc:	88 2f       	mov	r24, r24
    45de:	90 e0       	ldi	r25, 0x00	; 0
    45e0:	86 59       	subi	r24, 0x96	; 150
    45e2:	9c 4f       	sbci	r25, 0xFC	; 252
    45e4:	8b 83       	std	Y+3, r24	; 0x03
    45e6:	9c 83       	std	Y+4, r25	; 0x04
    45e8:	8b 81       	ldd	r24, Y+3	; 0x03
    45ea:	9c 81       	ldd	r25, Y+4	; 0x04
    45ec:	fc 01       	movw	r30, r24
    45ee:	84 91       	lpm	r24, Z
    45f0:	8d 83       	std	Y+5, r24	; 0x05
    45f2:	8d 81       	ldd	r24, Y+5	; 0x05
    45f4:	8e 83       	std	Y+6, r24	; 0x06
    45f6:	89 81       	ldd	r24, Y+1	; 0x01
    45f8:	88 2f       	mov	r24, r24
    45fa:	90 e0       	ldi	r25, 0x00	; 0
    45fc:	81 59       	subi	r24, 0x91	; 145
    45fe:	9d 4d       	sbci	r25, 0xDD	; 221
    4600:	fc 01       	movw	r30, r24
    4602:	80 81       	ld	r24, Z
    4604:	9e 81       	ldd	r25, Y+6	; 0x06
    4606:	89 27       	eor	r24, r25
    4608:	8e 83       	std	Y+6, r24	; 0x06
    460a:	89 81       	ldd	r24, Y+1	; 0x01
    460c:	88 2f       	mov	r24, r24
    460e:	90 e0       	ldi	r25, 0x00	; 0
    4610:	2f 81       	ldd	r18, Y+7	; 0x07
    4612:	38 85       	ldd	r19, Y+8	; 0x08
    4614:	82 0f       	add	r24, r18
    4616:	93 1f       	adc	r25, r19
    4618:	fc 01       	movw	r30, r24
    461a:	90 81       	ld	r25, Z
    461c:	8e 81       	ldd	r24, Y+6	; 0x06
    461e:	98 27       	eor	r25, r24
    4620:	80 91 5c 22 	lds	r24, 0x225C
    4624:	80 95       	com	r24
    4626:	89 2b       	or	r24, r25
    4628:	88 2f       	mov	r24, r24
    462a:	90 e0       	ldi	r25, 0x00	; 0
    462c:	98 2f       	mov	r25, r24
    462e:	8a 81       	ldd	r24, Y+2	; 0x02
    4630:	89 2b       	or	r24, r25
    4632:	8a 83       	std	Y+2, r24	; 0x02
    4634:	89 81       	ldd	r24, Y+1	; 0x01
    4636:	8f 5f       	subi	r24, 0xFF	; 255
    4638:	89 83       	std	Y+1, r24	; 0x01
    463a:	89 81       	ldd	r24, Y+1	; 0x01
    463c:	80 32       	cpi	r24, 0x20	; 32
    463e:	68 f2       	brcs	.-102    	;  0x45da
    4640:	81 e0       	ldi	r24, 0x01	; 1
    4642:	9a 81       	ldd	r25, Y+2	; 0x02
    4644:	99 23       	and	r25, r25
    4646:	09 f0       	breq	.+2      	;  0x464a
    4648:	80 e0       	ldi	r24, 0x00	; 0
    464a:	28 96       	adiw	r28, 0x08	; 8
    464c:	cd bf       	out	0x3d, r28	; 61
    464e:	de bf       	out	0x3e, r29	; 62
    4650:	df 91       	pop	r29
    4652:	cf 91       	pop	r28
    4654:	08 95       	ret
    4656:	1f 93       	push	r17
    4658:	cf 93       	push	r28
    465a:	df 93       	push	r29
    465c:	cd b7       	in	r28, 0x3d	; 61
    465e:	de b7       	in	r29, 0x3e	; 62
    4660:	2d 97       	sbiw	r28, 0x0d	; 13
    4662:	cd bf       	out	0x3d, r28	; 61
    4664:	de bf       	out	0x3e, r29	; 62
    4666:	8c 87       	std	Y+12, r24	; 0x0c
    4668:	9d 87       	std	Y+13, r25	; 0x0d
    466a:	1a 82       	std	Y+2, r1	; 0x02
    466c:	19 82       	std	Y+1, r1	; 0x01
    466e:	63 c0       	rjmp	.+198    	;  0x4736
    4670:	89 81       	ldd	r24, Y+1	; 0x01
    4672:	88 2f       	mov	r24, r24
    4674:	90 e0       	ldi	r25, 0x00	; 0
    4676:	88 0f       	add	r24, r24
    4678:	99 1f       	adc	r25, r25
    467a:	86 59       	subi	r24, 0x96	; 150
    467c:	9c 4f       	sbci	r25, 0xFC	; 252
    467e:	8b 83       	std	Y+3, r24	; 0x03
    4680:	9c 83       	std	Y+4, r25	; 0x04
    4682:	8b 81       	ldd	r24, Y+3	; 0x03
    4684:	9c 81       	ldd	r25, Y+4	; 0x04
    4686:	fc 01       	movw	r30, r24
    4688:	84 91       	lpm	r24, Z
    468a:	8d 83       	std	Y+5, r24	; 0x05
    468c:	8d 81       	ldd	r24, Y+5	; 0x05
    468e:	8e 83       	std	Y+6, r24	; 0x06
    4690:	89 81       	ldd	r24, Y+1	; 0x01
    4692:	88 2f       	mov	r24, r24
    4694:	90 e0       	ldi	r25, 0x00	; 0
    4696:	88 0f       	add	r24, r24
    4698:	99 1f       	adc	r25, r25
    469a:	01 96       	adiw	r24, 0x01	; 1
    469c:	86 59       	subi	r24, 0x96	; 150
    469e:	9c 4f       	sbci	r25, 0xFC	; 252
    46a0:	8f 83       	std	Y+7, r24	; 0x07
    46a2:	98 87       	std	Y+8, r25	; 0x08
    46a4:	8f 81       	ldd	r24, Y+7	; 0x07
    46a6:	98 85       	ldd	r25, Y+8	; 0x08
    46a8:	fc 01       	movw	r30, r24
    46aa:	84 91       	lpm	r24, Z
    46ac:	89 87       	std	Y+9, r24	; 0x09
    46ae:	89 85       	ldd	r24, Y+9	; 0x09
    46b0:	8a 87       	std	Y+10, r24	; 0x0a
    46b2:	89 81       	ldd	r24, Y+1	; 0x01
    46b4:	88 2f       	mov	r24, r24
    46b6:	90 e0       	ldi	r25, 0x00	; 0
    46b8:	88 0f       	add	r24, r24
    46ba:	99 1f       	adc	r25, r25
    46bc:	81 59       	subi	r24, 0x91	; 145
    46be:	9d 4d       	sbci	r25, 0xDD	; 221
    46c0:	fc 01       	movw	r30, r24
    46c2:	80 81       	ld	r24, Z
    46c4:	9e 81       	ldd	r25, Y+6	; 0x06
    46c6:	89 27       	eor	r24, r25
    46c8:	8e 83       	std	Y+6, r24	; 0x06
    46ca:	89 81       	ldd	r24, Y+1	; 0x01
    46cc:	88 2f       	mov	r24, r24
    46ce:	90 e0       	ldi	r25, 0x00	; 0
    46d0:	88 0f       	add	r24, r24
    46d2:	99 1f       	adc	r25, r25
    46d4:	01 96       	adiw	r24, 0x01	; 1
    46d6:	81 59       	subi	r24, 0x91	; 145
    46d8:	9d 4d       	sbci	r25, 0xDD	; 221
    46da:	fc 01       	movw	r30, r24
    46dc:	80 81       	ld	r24, Z
    46de:	9a 85       	ldd	r25, Y+10	; 0x0a
    46e0:	89 27       	eor	r24, r25
    46e2:	8a 87       	std	Y+10, r24	; 0x0a
    46e4:	8e 81       	ldd	r24, Y+6	; 0x06
    46e6:	0e 94 57 22 	call	0x44ae	;  0x44ae
    46ea:	88 2f       	mov	r24, r24
    46ec:	90 e0       	ldi	r25, 0x00	; 0
    46ee:	82 95       	swap	r24
    46f0:	92 95       	swap	r25
    46f2:	90 7f       	andi	r25, 0xF0	; 240
    46f4:	98 27       	eor	r25, r24
    46f6:	80 7f       	andi	r24, 0xF0	; 240
    46f8:	98 27       	eor	r25, r24
    46fa:	18 2f       	mov	r17, r24
    46fc:	8a 85       	ldd	r24, Y+10	; 0x0a
    46fe:	0e 94 57 22 	call	0x44ae	;  0x44ae
    4702:	81 2b       	or	r24, r17
    4704:	8b 87       	std	Y+11, r24	; 0x0b
    4706:	89 81       	ldd	r24, Y+1	; 0x01
    4708:	88 2f       	mov	r24, r24
    470a:	90 e0       	ldi	r25, 0x00	; 0
    470c:	2c 85       	ldd	r18, Y+12	; 0x0c
    470e:	3d 85       	ldd	r19, Y+13	; 0x0d
    4710:	82 0f       	add	r24, r18
    4712:	93 1f       	adc	r25, r19
    4714:	fc 01       	movw	r30, r24
    4716:	90 81       	ld	r25, Z
    4718:	8b 85       	ldd	r24, Y+11	; 0x0b
    471a:	98 27       	eor	r25, r24
    471c:	80 91 5c 22 	lds	r24, 0x225C
    4720:	80 95       	com	r24
    4722:	89 2b       	or	r24, r25
    4724:	88 2f       	mov	r24, r24
    4726:	90 e0       	ldi	r25, 0x00	; 0
    4728:	98 2f       	mov	r25, r24
    472a:	8a 81       	ldd	r24, Y+2	; 0x02
    472c:	89 2b       	or	r24, r25
    472e:	8a 83       	std	Y+2, r24	; 0x02
    4730:	89 81       	ldd	r24, Y+1	; 0x01
    4732:	8f 5f       	subi	r24, 0xFF	; 255
    4734:	89 83       	std	Y+1, r24	; 0x01
    4736:	89 81       	ldd	r24, Y+1	; 0x01
    4738:	80 31       	cpi	r24, 0x10	; 16
    473a:	08 f4       	brcc	.+2      	;  0x473e
    473c:	99 cf       	rjmp	.-206    	;  0x4670
    473e:	81 e0       	ldi	r24, 0x01	; 1
    4740:	9a 81       	ldd	r25, Y+2	; 0x02
    4742:	99 23       	and	r25, r25
    4744:	09 f0       	breq	.+2      	;  0x4748
    4746:	80 e0       	ldi	r24, 0x00	; 0
    4748:	2d 96       	adiw	r28, 0x0d	; 13
    474a:	cd bf       	out	0x3d, r28	; 61
    474c:	de bf       	out	0x3e, r29	; 62
    474e:	df 91       	pop	r29
    4750:	cf 91       	pop	r28
    4752:	1f 91       	pop	r17
    4754:	08 95       	ret
    4756:	cf 93       	push	r28
    4758:	df 93       	push	r29
    475a:	1f 92       	push	r1
    475c:	cd b7       	in	r28, 0x3d	; 61
    475e:	de b7       	in	r29, 0x3e	; 62
    4760:	89 83       	std	Y+1, r24	; 0x01
    4762:	89 81       	ldd	r24, Y+1	; 0x01
    4764:	80 93 5d 22 	sts	0x225D, r24
    4768:	0f 90       	pop	r0
    476a:	df 91       	pop	r29
    476c:	cf 91       	pop	r28
    476e:	08 95       	ret
    4770:	cf 93       	push	r28
    4772:	df 93       	push	r29
    4774:	cd b7       	in	r28, 0x3d	; 61
    4776:	de b7       	in	r29, 0x3e	; 62
    4778:	27 97       	sbiw	r28, 0x07	; 7
    477a:	cd bf       	out	0x3d, r28	; 61
    477c:	de bf       	out	0x3e, r29	; 62
    477e:	8e 83       	std	Y+6, r24	; 0x06
    4780:	9f 83       	std	Y+7, r25	; 0x07
    4782:	19 82       	std	Y+1, r1	; 0x01
    4784:	2a c0       	rjmp	.+84     	;  0x47da
    4786:	89 81       	ldd	r24, Y+1	; 0x01
    4788:	88 2f       	mov	r24, r24
    478a:	90 e0       	ldi	r25, 0x00	; 0
    478c:	86 59       	subi	r24, 0x96	; 150
    478e:	9c 4f       	sbci	r25, 0xFC	; 252
    4790:	8a 83       	std	Y+2, r24	; 0x02
    4792:	9b 83       	std	Y+3, r25	; 0x03
    4794:	8a 81       	ldd	r24, Y+2	; 0x02
    4796:	9b 81       	ldd	r25, Y+3	; 0x03
    4798:	fc 01       	movw	r30, r24
    479a:	84 91       	lpm	r24, Z
    479c:	8c 83       	std	Y+4, r24	; 0x04
    479e:	8c 81       	ldd	r24, Y+4	; 0x04
    47a0:	8d 83       	std	Y+5, r24	; 0x05
    47a2:	89 81       	ldd	r24, Y+1	; 0x01
    47a4:	88 2f       	mov	r24, r24
    47a6:	90 e0       	ldi	r25, 0x00	; 0
    47a8:	81 59       	subi	r24, 0x91	; 145
    47aa:	9d 4d       	sbci	r25, 0xDD	; 221
    47ac:	fc 01       	movw	r30, r24
    47ae:	80 81       	ld	r24, Z
    47b0:	9d 81       	ldd	r25, Y+5	; 0x05
    47b2:	89 27       	eor	r24, r25
    47b4:	8d 83       	std	Y+5, r24	; 0x05
    47b6:	89 81       	ldd	r24, Y+1	; 0x01
    47b8:	88 2f       	mov	r24, r24
    47ba:	90 e0       	ldi	r25, 0x00	; 0
    47bc:	2e 81       	ldd	r18, Y+6	; 0x06
    47be:	3f 81       	ldd	r19, Y+7	; 0x07
    47c0:	82 0f       	add	r24, r18
    47c2:	93 1f       	adc	r25, r19
    47c4:	20 91 5d 22 	lds	r18, 0x225D
    47c8:	32 2f       	mov	r19, r18
    47ca:	30 95       	com	r19
    47cc:	2d 81       	ldd	r18, Y+5	; 0x05
    47ce:	23 2b       	or	r18, r19
    47d0:	fc 01       	movw	r30, r24
    47d2:	20 83       	st	Z, r18
    47d4:	89 81       	ldd	r24, Y+1	; 0x01
    47d6:	8f 5f       	subi	r24, 0xFF	; 255
    47d8:	89 83       	std	Y+1, r24	; 0x01
    47da:	89 81       	ldd	r24, Y+1	; 0x01
    47dc:	80 32       	cpi	r24, 0x20	; 32
    47de:	98 f2       	brcs	.-90     	;  0x4786
    47e0:	27 96       	adiw	r28, 0x07	; 7
    47e2:	cd bf       	out	0x3d, r28	; 61
    47e4:	de bf       	out	0x3e, r29	; 62
    47e6:	df 91       	pop	r29
    47e8:	cf 91       	pop	r28
    47ea:	08 95       	ret
    47ec:	ff 92       	push	r15
    47ee:	0f 93       	push	r16
    47f0:	1f 93       	push	r17
    47f2:	cf 93       	push	r28
    47f4:	df 93       	push	r29
    47f6:	cd b7       	in	r28, 0x3d	; 61
    47f8:	de b7       	in	r29, 0x3e	; 62
    47fa:	2b 97       	sbiw	r28, 0x0b	; 11
    47fc:	cd bf       	out	0x3d, r28	; 61
    47fe:	de bf       	out	0x3e, r29	; 62
    4800:	8a 87       	std	Y+10, r24	; 0x0a
    4802:	9b 87       	std	Y+11, r25	; 0x0b
    4804:	19 82       	std	Y+1, r1	; 0x01
    4806:	5c c0       	rjmp	.+184    	;  0x48c0
    4808:	89 81       	ldd	r24, Y+1	; 0x01
    480a:	88 2f       	mov	r24, r24
    480c:	90 e0       	ldi	r25, 0x00	; 0
    480e:	88 0f       	add	r24, r24
    4810:	99 1f       	adc	r25, r25
    4812:	86 59       	subi	r24, 0x96	; 150
    4814:	9c 4f       	sbci	r25, 0xFC	; 252
    4816:	8a 83       	std	Y+2, r24	; 0x02
    4818:	9b 83       	std	Y+3, r25	; 0x03
    481a:	8a 81       	ldd	r24, Y+2	; 0x02
    481c:	9b 81       	ldd	r25, Y+3	; 0x03
    481e:	fc 01       	movw	r30, r24
    4820:	84 91       	lpm	r24, Z
    4822:	8c 83       	std	Y+4, r24	; 0x04
    4824:	8c 81       	ldd	r24, Y+4	; 0x04
    4826:	8d 83       	std	Y+5, r24	; 0x05
    4828:	89 81       	ldd	r24, Y+1	; 0x01
    482a:	88 2f       	mov	r24, r24
    482c:	90 e0       	ldi	r25, 0x00	; 0
    482e:	88 0f       	add	r24, r24
    4830:	99 1f       	adc	r25, r25
    4832:	01 96       	adiw	r24, 0x01	; 1
    4834:	86 59       	subi	r24, 0x96	; 150
    4836:	9c 4f       	sbci	r25, 0xFC	; 252
    4838:	8e 83       	std	Y+6, r24	; 0x06
    483a:	9f 83       	std	Y+7, r25	; 0x07
    483c:	8e 81       	ldd	r24, Y+6	; 0x06
    483e:	9f 81       	ldd	r25, Y+7	; 0x07
    4840:	fc 01       	movw	r30, r24
    4842:	84 91       	lpm	r24, Z
    4844:	88 87       	std	Y+8, r24	; 0x08
    4846:	88 85       	ldd	r24, Y+8	; 0x08
    4848:	89 87       	std	Y+9, r24	; 0x09
    484a:	89 81       	ldd	r24, Y+1	; 0x01
    484c:	88 2f       	mov	r24, r24
    484e:	90 e0       	ldi	r25, 0x00	; 0
    4850:	88 0f       	add	r24, r24
    4852:	99 1f       	adc	r25, r25
    4854:	81 59       	subi	r24, 0x91	; 145
    4856:	9d 4d       	sbci	r25, 0xDD	; 221
    4858:	fc 01       	movw	r30, r24
    485a:	80 81       	ld	r24, Z
    485c:	9d 81       	ldd	r25, Y+5	; 0x05
    485e:	89 27       	eor	r24, r25
    4860:	8d 83       	std	Y+5, r24	; 0x05
    4862:	89 81       	ldd	r24, Y+1	; 0x01
    4864:	88 2f       	mov	r24, r24
    4866:	90 e0       	ldi	r25, 0x00	; 0
    4868:	88 0f       	add	r24, r24
    486a:	99 1f       	adc	r25, r25
    486c:	01 96       	adiw	r24, 0x01	; 1
    486e:	81 59       	subi	r24, 0x91	; 145
    4870:	9d 4d       	sbci	r25, 0xDD	; 221
    4872:	fc 01       	movw	r30, r24
    4874:	80 81       	ld	r24, Z
    4876:	99 85       	ldd	r25, Y+9	; 0x09
    4878:	89 27       	eor	r24, r25
    487a:	89 87       	std	Y+9, r24	; 0x09
    487c:	89 81       	ldd	r24, Y+1	; 0x01
    487e:	88 2f       	mov	r24, r24
    4880:	90 e0       	ldi	r25, 0x00	; 0
    4882:	2a 85       	ldd	r18, Y+10	; 0x0a
    4884:	3b 85       	ldd	r19, Y+11	; 0x0b
    4886:	89 01       	movw	r16, r18
    4888:	08 0f       	add	r16, r24
    488a:	19 1f       	adc	r17, r25
    488c:	8d 81       	ldd	r24, Y+5	; 0x05
    488e:	0e 94 57 22 	call	0x44ae	;  0x44ae
    4892:	88 2f       	mov	r24, r24
    4894:	90 e0       	ldi	r25, 0x00	; 0
    4896:	82 95       	swap	r24
    4898:	92 95       	swap	r25
    489a:	90 7f       	andi	r25, 0xF0	; 240
    489c:	98 27       	eor	r25, r24
    489e:	80 7f       	andi	r24, 0xF0	; 240
    48a0:	98 27       	eor	r25, r24
    48a2:	f8 2e       	mov	r15, r24
    48a4:	89 85       	ldd	r24, Y+9	; 0x09
    48a6:	0e 94 57 22 	call	0x44ae	;  0x44ae
    48aa:	9f 2d       	mov	r25, r15
    48ac:	98 2b       	or	r25, r24
    48ae:	80 91 5d 22 	lds	r24, 0x225D
    48b2:	80 95       	com	r24
    48b4:	89 2b       	or	r24, r25
    48b6:	f8 01       	movw	r30, r16
    48b8:	80 83       	st	Z, r24
    48ba:	89 81       	ldd	r24, Y+1	; 0x01
    48bc:	8f 5f       	subi	r24, 0xFF	; 255
    48be:	89 83       	std	Y+1, r24	; 0x01
    48c0:	89 81       	ldd	r24, Y+1	; 0x01
    48c2:	80 31       	cpi	r24, 0x10	; 16
    48c4:	08 f4       	brcc	.+2      	;  0x48c8
    48c6:	a0 cf       	rjmp	.-192    	;  0x4808
    48c8:	2b 96       	adiw	r28, 0x0b	; 11
    48ca:	cd bf       	out	0x3d, r28	; 61
    48cc:	de bf       	out	0x3e, r29	; 62
    48ce:	df 91       	pop	r29
    48d0:	cf 91       	pop	r28
    48d2:	1f 91       	pop	r17
    48d4:	0f 91       	pop	r16
    48d6:	ff 90       	pop	r15
    48d8:	08 95       	ret
    48da:	cf 93       	push	r28
    48dc:	df 93       	push	r29
    48de:	1f 92       	push	r1
    48e0:	cd b7       	in	r28, 0x3d	; 61
    48e2:	de b7       	in	r29, 0x3e	; 62
    48e4:	89 83       	std	Y+1, r24	; 0x01
    48e6:	89 81       	ldd	r24, Y+1	; 0x01
    48e8:	80 93 5e 22 	sts	0x225E, r24
    48ec:	0f 90       	pop	r0
    48ee:	df 91       	pop	r29
    48f0:	cf 91       	pop	r28
    48f2:	08 95       	ret
    48f4:	cf 93       	push	r28
    48f6:	df 93       	push	r29
    48f8:	cd b7       	in	r28, 0x3d	; 61
    48fa:	de b7       	in	r29, 0x3e	; 62
    48fc:	27 97       	sbiw	r28, 0x07	; 7
    48fe:	cd bf       	out	0x3d, r28	; 61
    4900:	de bf       	out	0x3e, r29	; 62
    4902:	8e 83       	std	Y+6, r24	; 0x06
    4904:	9f 83       	std	Y+7, r25	; 0x07
    4906:	19 82       	std	Y+1, r1	; 0x01
    4908:	25 c0       	rjmp	.+74     	;  0x4954
    490a:	89 81       	ldd	r24, Y+1	; 0x01
    490c:	88 2f       	mov	r24, r24
    490e:	90 e0       	ldi	r25, 0x00	; 0
    4910:	86 59       	subi	r24, 0x96	; 150
    4912:	9c 4f       	sbci	r25, 0xFC	; 252
    4914:	8a 83       	std	Y+2, r24	; 0x02
    4916:	9b 83       	std	Y+3, r25	; 0x03
    4918:	8a 81       	ldd	r24, Y+2	; 0x02
    491a:	9b 81       	ldd	r25, Y+3	; 0x03
    491c:	fc 01       	movw	r30, r24
    491e:	84 91       	lpm	r24, Z
    4920:	8c 83       	std	Y+4, r24	; 0x04
    4922:	8c 81       	ldd	r24, Y+4	; 0x04
    4924:	8d 83       	std	Y+5, r24	; 0x05
    4926:	89 81       	ldd	r24, Y+1	; 0x01
    4928:	88 2f       	mov	r24, r24
    492a:	90 e0       	ldi	r25, 0x00	; 0
    492c:	81 59       	subi	r24, 0x91	; 145
    492e:	9d 4d       	sbci	r25, 0xDD	; 221
    4930:	fc 01       	movw	r30, r24
    4932:	80 81       	ld	r24, Z
    4934:	9d 81       	ldd	r25, Y+5	; 0x05
    4936:	89 27       	eor	r24, r25
    4938:	8d 83       	std	Y+5, r24	; 0x05
    493a:	80 91 5e 22 	lds	r24, 0x225E
    493e:	98 2f       	mov	r25, r24
    4940:	90 95       	com	r25
    4942:	8d 81       	ldd	r24, Y+5	; 0x05
    4944:	89 2b       	or	r24, r25
    4946:	2e 81       	ldd	r18, Y+6	; 0x06
    4948:	3f 81       	ldd	r19, Y+7	; 0x07
    494a:	f9 01       	movw	r30, r18
    494c:	19 95       	eicall
    494e:	89 81       	ldd	r24, Y+1	; 0x01
    4950:	8f 5f       	subi	r24, 0xFF	; 255
    4952:	89 83       	std	Y+1, r24	; 0x01
    4954:	89 81       	ldd	r24, Y+1	; 0x01
    4956:	80 32       	cpi	r24, 0x20	; 32
    4958:	c0 f2       	brcs	.-80     	;  0x490a
    495a:	27 96       	adiw	r28, 0x07	; 7
    495c:	cd bf       	out	0x3d, r28	; 61
    495e:	de bf       	out	0x3e, r29	; 62
    4960:	df 91       	pop	r29
    4962:	cf 91       	pop	r28
    4964:	08 95       	ret
    4966:	db 01       	movw	r26, r22
    4968:	8f 93       	push	r24
    496a:	9f 93       	push	r25
    496c:	0e 94 25 25 	call	0x4a4a	;  0x4a4a
    4970:	bf 91       	pop	r27
    4972:	af 91       	pop	r26
    4974:	a2 9f       	mul	r26, r18
    4976:	80 0d       	add	r24, r0
    4978:	91 1d       	adc	r25, r1
    497a:	a3 9f       	mul	r26, r19
    497c:	90 0d       	add	r25, r0
    497e:	b2 9f       	mul	r27, r18
    4980:	90 0d       	add	r25, r0
    4982:	11 24       	eor	r1, r1
    4984:	08 95       	ret
    4986:	aa 1b       	sub	r26, r26
    4988:	bb 1b       	sub	r27, r27
    498a:	51 e1       	ldi	r21, 0x11	; 17
    498c:	07 c0       	rjmp	.+14     	;  0x499c
    498e:	aa 1f       	adc	r26, r26
    4990:	bb 1f       	adc	r27, r27
    4992:	a6 17       	cp	r26, r22
    4994:	b7 07       	cpc	r27, r23
    4996:	10 f0       	brcs	.+4      	;  0x499c
    4998:	a6 1b       	sub	r26, r22
    499a:	b7 0b       	sbc	r27, r23
    499c:	88 1f       	adc	r24, r24
    499e:	99 1f       	adc	r25, r25
    49a0:	5a 95       	dec	r21
    49a2:	a9 f7       	brne	.-22     	;  0x498e
    49a4:	80 95       	com	r24
    49a6:	90 95       	com	r25
    49a8:	bc 01       	movw	r22, r24
    49aa:	cd 01       	movw	r24, r26
    49ac:	08 95       	ret
    49ae:	97 fb       	bst	r25, 7
    49b0:	07 2e       	mov	r0, r23
    49b2:	16 f4       	brtc	.+4      	;  0x49b8
    49b4:	00 94       	com	r0
    49b6:	07 d0       	rcall	.+14     	;  0x49c6
    49b8:	77 fd       	sbrc	r23, 7
    49ba:	09 d0       	rcall	.+18     	;  0x49ce
    49bc:	0e 94 c3 24 	call	0x4986	;  0x4986
    49c0:	07 fc       	sbrc	r0, 7
    49c2:	05 d0       	rcall	.+10     	;  0x49ce
    49c4:	3e f4       	brtc	.+14     	;  0x49d4
    49c6:	90 95       	com	r25
    49c8:	81 95       	neg	r24
    49ca:	9f 4f       	sbci	r25, 0xFF	; 255
    49cc:	08 95       	ret
    49ce:	70 95       	com	r23
    49d0:	61 95       	neg	r22
    49d2:	7f 4f       	sbci	r23, 0xFF	; 255
    49d4:	08 95       	ret
    49d6:	a1 e2       	ldi	r26, 0x21	; 33
    49d8:	1a 2e       	mov	r1, r26
    49da:	aa 1b       	sub	r26, r26
    49dc:	bb 1b       	sub	r27, r27
    49de:	fd 01       	movw	r30, r26
    49e0:	0d c0       	rjmp	.+26     	;  0x49fc
    49e2:	aa 1f       	adc	r26, r26
    49e4:	bb 1f       	adc	r27, r27
    49e6:	ee 1f       	adc	r30, r30
    49e8:	ff 1f       	adc	r31, r31
    49ea:	a2 17       	cp	r26, r18
    49ec:	b3 07       	cpc	r27, r19
    49ee:	e4 07       	cpc	r30, r20
    49f0:	f5 07       	cpc	r31, r21
    49f2:	20 f0       	brcs	.+8      	;  0x49fc
    49f4:	a2 1b       	sub	r26, r18
    49f6:	b3 0b       	sbc	r27, r19
    49f8:	e4 0b       	sbc	r30, r20
    49fa:	f5 0b       	sbc	r31, r21
    49fc:	66 1f       	adc	r22, r22
    49fe:	77 1f       	adc	r23, r23
    4a00:	88 1f       	adc	r24, r24
    4a02:	99 1f       	adc	r25, r25
    4a04:	1a 94       	dec	r1
    4a06:	69 f7       	brne	.-38     	;  0x49e2
    4a08:	60 95       	com	r22
    4a0a:	70 95       	com	r23
    4a0c:	80 95       	com	r24
    4a0e:	90 95       	com	r25
    4a10:	9b 01       	movw	r18, r22
    4a12:	ac 01       	movw	r20, r24
    4a14:	bd 01       	movw	r22, r26
    4a16:	cf 01       	movw	r24, r30
    4a18:	08 95       	ret
    4a1a:	ee 0f       	add	r30, r30
    4a1c:	ff 1f       	adc	r31, r31
    4a1e:	88 1f       	adc	r24, r24
    4a20:	8b bf       	out	0x3b, r24	; 59
    4a22:	07 90       	elpm	r0, Z+
    4a24:	f6 91       	elpm	r31, Z
    4a26:	e0 2d       	mov	r30, r0
    4a28:	1b be       	out	0x3b, r1	; 59
    4a2a:	19 94       	eijmp
	
    4a2c:	a2 9f       	mul	r26, r18
    4a2e:	b0 01       	movw	r22, r0
    4a30:	b3 9f       	mul	r27, r19
    4a32:	c0 01       	movw	r24, r0
    4a34:	a3 9f       	mul	r26, r19
    4a36:	70 0d       	add	r23, r0
    4a38:	81 1d       	adc	r24, r1
    4a3a:	11 24       	eor	r1, r1
    4a3c:	91 1d       	adc	r25, r1
    4a3e:	b2 9f       	mul	r27, r18
    4a40:	70 0d       	add	r23, r0
    4a42:	81 1d       	adc	r24, r1
    4a44:	11 24       	eor	r1, r1
    4a46:	91 1d       	adc	r25, r1
    4a48:	08 95       	ret
	
    4a4a:	0e 94 16 25 	call	0x4a2c	;  0x4a2c
    4a4e:	a5 9f       	mul	r26, r21
    4a50:	90 0d       	add	r25, r0
    4a52:	b4 9f       	mul	r27, r20
    4a54:	90 0d       	add	r25, r0
    4a56:	a4 9f       	mul	r26, r20
    4a58:	80 0d       	add	r24, r0
    4a5a:	91 1d       	adc	r25, r1
    4a5c:	11 24       	eor	r1, r1
    4a5e:	08 95       	ret
    4a60:	0f 93       	push	r16
    4a62:	08 30       	cpi	r16, 0x08	; 8
    4a64:	90 f0       	brcs	.+36     	;  0x4a8a
    4a66:	98 2f       	mov	r25, r24
    4a68:	87 2f       	mov	r24, r23
    4a6a:	76 2f       	mov	r23, r22
    4a6c:	65 2f       	mov	r22, r21
    4a6e:	54 2f       	mov	r21, r20
    4a70:	43 2f       	mov	r20, r19
    4a72:	32 2f       	mov	r19, r18
    4a74:	22 27       	eor	r18, r18
    4a76:	08 50       	subi	r16, 0x08	; 8
    4a78:	f4 cf       	rjmp	.-24     	;  0x4a62
    4a7a:	22 0f       	add	r18, r18
    4a7c:	33 1f       	adc	r19, r19
    4a7e:	44 1f       	adc	r20, r20
    4a80:	55 1f       	adc	r21, r21
    4a82:	66 1f       	adc	r22, r22
    4a84:	77 1f       	adc	r23, r23
    4a86:	88 1f       	adc	r24, r24
    4a88:	99 1f       	adc	r25, r25
    4a8a:	0a 95       	dec	r16
    4a8c:	b2 f7       	brpl	.-20     	;  0x4a7a
    4a8e:	0f 91       	pop	r16
    4a90:	08 95       	ret
    4a92:	97 fb       	bst	r25, 7
    4a94:	10 f8       	bld	r1, 0
    4a96:	16 94       	lsr	r1
    4a98:	00 08       	sbc	r0, r0
    4a9a:	0f 93       	push	r16
    4a9c:	08 30       	cpi	r16, 0x08	; 8
    4a9e:	98 f0       	brcs	.+38     	;  0x4ac6
    4aa0:	08 50       	subi	r16, 0x08	; 8
    4aa2:	23 2f       	mov	r18, r19
    4aa4:	34 2f       	mov	r19, r20
    4aa6:	45 2f       	mov	r20, r21
    4aa8:	56 2f       	mov	r21, r22
    4aaa:	67 2f       	mov	r22, r23
    4aac:	78 2f       	mov	r23, r24
    4aae:	89 2f       	mov	r24, r25
    4ab0:	90 2d       	mov	r25, r0
    4ab2:	f4 cf       	rjmp	.-24     	;  0x4a9c
    4ab4:	05 94       	asr	r0
    4ab6:	97 95       	ror	r25
    4ab8:	87 95       	ror	r24
    4aba:	77 95       	ror	r23
    4abc:	67 95       	ror	r22
    4abe:	57 95       	ror	r21
    4ac0:	47 95       	ror	r20
    4ac2:	37 95       	ror	r19
    4ac4:	27 95       	ror	r18
    4ac6:	0a 95       	dec	r16
    4ac8:	aa f7       	brpl	.-22     	;  0x4ab4
    4aca:	0f 91       	pop	r16
    4acc:	08 95       	ret
    4ace:	2a 0d       	add	r18, r10
    4ad0:	3b 1d       	adc	r19, r11
    4ad2:	4c 1d       	adc	r20, r12
    4ad4:	5d 1d       	adc	r21, r13
    4ad6:	6e 1d       	adc	r22, r14
    4ad8:	7f 1d       	adc	r23, r15
    4ada:	80 1f       	adc	r24, r16
    4adc:	91 1f       	adc	r25, r17
    4ade:	08 95       	ret
    4ae0:	cf 93       	push	r28
    4ae2:	df 93       	push	r29
    4ae4:	82 30       	cpi	r24, 0x02	; 2
    4ae6:	91 05       	cpc	r25, r1
    4ae8:	10 f4       	brcc	.+4      	;  0x4aee
    4aea:	82 e0       	ldi	r24, 0x02	; 2
    4aec:	90 e0       	ldi	r25, 0x00	; 0
    4aee:	e0 91 d5 22 	lds	r30, 0x22D5
    4af2:	f0 91 d6 22 	lds	r31, 0x22D6
    4af6:	20 e0       	ldi	r18, 0x00	; 0
    4af8:	30 e0       	ldi	r19, 0x00	; 0
    4afa:	c0 e0       	ldi	r28, 0x00	; 0
    4afc:	d0 e0       	ldi	r29, 0x00	; 0
    4afe:	30 97       	sbiw	r30, 0x00	; 0
    4b00:	11 f1       	breq	.+68     	;  0x4b46
    4b02:	40 81       	ld	r20, Z
    4b04:	51 81       	ldd	r21, Z+1	; 0x01
    4b06:	48 17       	cp	r20, r24
    4b08:	59 07       	cpc	r21, r25
    4b0a:	c0 f0       	brcs	.+48     	;  0x4b3c
    4b0c:	48 17       	cp	r20, r24
    4b0e:	59 07       	cpc	r21, r25
    4b10:	61 f4       	brne	.+24     	;  0x4b2a
    4b12:	82 81       	ldd	r24, Z+2	; 0x02
    4b14:	93 81       	ldd	r25, Z+3	; 0x03
    4b16:	20 97       	sbiw	r28, 0x00	; 0
    4b18:	19 f0       	breq	.+6      	;  0x4b20
    4b1a:	8a 83       	std	Y+2, r24	; 0x02
    4b1c:	9b 83       	std	Y+3, r25	; 0x03
    4b1e:	2b c0       	rjmp	.+86     	;  0x4b76
    4b20:	80 93 d5 22 	sts	0x22D5, r24
    4b24:	90 93 d6 22 	sts	0x22D6, r25
    4b28:	26 c0       	rjmp	.+76     	;  0x4b76
    4b2a:	21 15       	cp	r18, r1
    4b2c:	31 05       	cpc	r19, r1
    4b2e:	19 f0       	breq	.+6      	;  0x4b36
    4b30:	42 17       	cp	r20, r18
    4b32:	53 07       	cpc	r21, r19
    4b34:	18 f4       	brcc	.+6      	;  0x4b3c
    4b36:	9a 01       	movw	r18, r20
    4b38:	be 01       	movw	r22, r28
    4b3a:	df 01       	movw	r26, r30
    4b3c:	ef 01       	movw	r28, r30
    4b3e:	02 80       	ldd	r0, Z+2	; 0x02
    4b40:	f3 81       	ldd	r31, Z+3	; 0x03
    4b42:	e0 2d       	mov	r30, r0
    4b44:	dc cf       	rjmp	.-72     	;  0x4afe
    4b46:	21 15       	cp	r18, r1
    4b48:	31 05       	cpc	r19, r1
    4b4a:	09 f1       	breq	.+66     	;  0x4b8e
    4b4c:	28 1b       	sub	r18, r24
    4b4e:	39 0b       	sbc	r19, r25
    4b50:	24 30       	cpi	r18, 0x04	; 4
    4b52:	31 05       	cpc	r19, r1
    4b54:	90 f4       	brcc	.+36     	;  0x4b7a
    4b56:	12 96       	adiw	r26, 0x02	; 2
    4b58:	8d 91       	ld	r24, X+
    4b5a:	9c 91       	ld	r25, X
    4b5c:	13 97       	sbiw	r26, 0x03	; 3
    4b5e:	61 15       	cp	r22, r1
    4b60:	71 05       	cpc	r23, r1
    4b62:	21 f0       	breq	.+8      	;  0x4b6c
    4b64:	fb 01       	movw	r30, r22
    4b66:	82 83       	std	Z+2, r24	; 0x02
    4b68:	93 83       	std	Z+3, r25	; 0x03
    4b6a:	04 c0       	rjmp	.+8      	;  0x4b74
    4b6c:	80 93 d5 22 	sts	0x22D5, r24
    4b70:	90 93 d6 22 	sts	0x22D6, r25
    4b74:	fd 01       	movw	r30, r26
    4b76:	32 96       	adiw	r30, 0x02	; 2
    4b78:	44 c0       	rjmp	.+136    	;  0x4c02
    4b7a:	fd 01       	movw	r30, r26
    4b7c:	e2 0f       	add	r30, r18
    4b7e:	f3 1f       	adc	r31, r19
    4b80:	81 93       	st	Z+, r24
    4b82:	91 93       	st	Z+, r25
    4b84:	22 50       	subi	r18, 0x02	; 2
    4b86:	31 09       	sbc	r19, r1
    4b88:	2d 93       	st	X+, r18
    4b8a:	3c 93       	st	X, r19
    4b8c:	3a c0       	rjmp	.+116    	;  0x4c02
    4b8e:	20 91 d3 22 	lds	r18, 0x22D3
    4b92:	30 91 d4 22 	lds	r19, 0x22D4
    4b96:	23 2b       	or	r18, r19
    4b98:	41 f4       	brne	.+16     	;  0x4baa
    4b9a:	20 91 1b 20 	lds	r18, 0x201B
    4b9e:	30 91 1c 20 	lds	r19, 0x201C
    4ba2:	20 93 d3 22 	sts	0x22D3, r18
    4ba6:	30 93 d4 22 	sts	0x22D4, r19
    4baa:	20 91 19 20 	lds	r18, 0x2019
    4bae:	30 91 1a 20 	lds	r19, 0x201A
    4bb2:	21 15       	cp	r18, r1
    4bb4:	31 05       	cpc	r19, r1
    4bb6:	41 f4       	brne	.+16     	;  0x4bc8
    4bb8:	2d b7       	in	r18, 0x3d	; 61
    4bba:	3e b7       	in	r19, 0x3e	; 62
    4bbc:	40 91 1d 20 	lds	r20, 0x201D
    4bc0:	50 91 1e 20 	lds	r21, 0x201E
    4bc4:	24 1b       	sub	r18, r20
    4bc6:	35 0b       	sbc	r19, r21
    4bc8:	e0 91 d3 22 	lds	r30, 0x22D3
    4bcc:	f0 91 d4 22 	lds	r31, 0x22D4
    4bd0:	e2 17       	cp	r30, r18
    4bd2:	f3 07       	cpc	r31, r19
    4bd4:	a0 f4       	brcc	.+40     	;  0x4bfe
    4bd6:	2e 1b       	sub	r18, r30
    4bd8:	3f 0b       	sbc	r19, r31
    4bda:	28 17       	cp	r18, r24
    4bdc:	39 07       	cpc	r19, r25
    4bde:	78 f0       	brcs	.+30     	;  0x4bfe
    4be0:	ac 01       	movw	r20, r24
    4be2:	4e 5f       	subi	r20, 0xFE	; 254
    4be4:	5f 4f       	sbci	r21, 0xFF	; 255
    4be6:	24 17       	cp	r18, r20
    4be8:	35 07       	cpc	r19, r21
    4bea:	48 f0       	brcs	.+18     	;  0x4bfe
    4bec:	4e 0f       	add	r20, r30
    4bee:	5f 1f       	adc	r21, r31
    4bf0:	40 93 d3 22 	sts	0x22D3, r20
    4bf4:	50 93 d4 22 	sts	0x22D4, r21
    4bf8:	81 93       	st	Z+, r24
    4bfa:	91 93       	st	Z+, r25
    4bfc:	02 c0       	rjmp	.+4      	;  0x4c02
    4bfe:	e0 e0       	ldi	r30, 0x00	; 0
    4c00:	f0 e0       	ldi	r31, 0x00	; 0
    4c02:	cf 01       	movw	r24, r30
    4c04:	df 91       	pop	r29
    4c06:	cf 91       	pop	r28
    4c08:	08 95       	ret
    4c0a:	0f 93       	push	r16
    4c0c:	1f 93       	push	r17
    4c0e:	cf 93       	push	r28
    4c10:	df 93       	push	r29
    4c12:	00 97       	sbiw	r24, 0x00	; 0
    4c14:	09 f4       	brne	.+2      	;  0x4c18
    4c16:	8c c0       	rjmp	.+280    	;  0x4d30
    4c18:	fc 01       	movw	r30, r24
    4c1a:	32 97       	sbiw	r30, 0x02	; 2
    4c1c:	12 82       	std	Z+2, r1	; 0x02
    4c1e:	13 82       	std	Z+3, r1	; 0x03
    4c20:	00 91 d5 22 	lds	r16, 0x22D5
    4c24:	10 91 d6 22 	lds	r17, 0x22D6
    4c28:	01 15       	cp	r16, r1
    4c2a:	11 05       	cpc	r17, r1
    4c2c:	81 f4       	brne	.+32     	;  0x4c4e
    4c2e:	20 81       	ld	r18, Z
    4c30:	31 81       	ldd	r19, Z+1	; 0x01
    4c32:	82 0f       	add	r24, r18
    4c34:	93 1f       	adc	r25, r19
    4c36:	20 91 d3 22 	lds	r18, 0x22D3
    4c3a:	30 91 d4 22 	lds	r19, 0x22D4
    4c3e:	28 17       	cp	r18, r24
    4c40:	39 07       	cpc	r19, r25
    4c42:	79 f5       	brne	.+94     	;  0x4ca2
    4c44:	e0 93 d3 22 	sts	0x22D3, r30
    4c48:	f0 93 d4 22 	sts	0x22D4, r31
    4c4c:	71 c0       	rjmp	.+226    	;  0x4d30
    4c4e:	d8 01       	movw	r26, r16
    4c50:	40 e0       	ldi	r20, 0x00	; 0
    4c52:	50 e0       	ldi	r21, 0x00	; 0
    4c54:	ae 17       	cp	r26, r30
    4c56:	bf 07       	cpc	r27, r31
    4c58:	50 f4       	brcc	.+20     	;  0x4c6e
    4c5a:	12 96       	adiw	r26, 0x02	; 2
    4c5c:	2d 91       	ld	r18, X+
    4c5e:	3c 91       	ld	r19, X
    4c60:	13 97       	sbiw	r26, 0x03	; 3
    4c62:	ad 01       	movw	r20, r26
    4c64:	21 15       	cp	r18, r1
    4c66:	31 05       	cpc	r19, r1
    4c68:	09 f1       	breq	.+66     	;  0x4cac
    4c6a:	d9 01       	movw	r26, r18
    4c6c:	f3 cf       	rjmp	.-26     	;  0x4c54
    4c6e:	9d 01       	movw	r18, r26
    4c70:	da 01       	movw	r26, r20
    4c72:	22 83       	std	Z+2, r18	; 0x02
    4c74:	33 83       	std	Z+3, r19	; 0x03
    4c76:	60 81       	ld	r22, Z
    4c78:	71 81       	ldd	r23, Z+1	; 0x01
    4c7a:	86 0f       	add	r24, r22
    4c7c:	97 1f       	adc	r25, r23
    4c7e:	82 17       	cp	r24, r18
    4c80:	93 07       	cpc	r25, r19
    4c82:	69 f4       	brne	.+26     	;  0x4c9e
    4c84:	ec 01       	movw	r28, r24
    4c86:	28 81       	ld	r18, Y
    4c88:	39 81       	ldd	r19, Y+1	; 0x01
    4c8a:	26 0f       	add	r18, r22
    4c8c:	37 1f       	adc	r19, r23
    4c8e:	2e 5f       	subi	r18, 0xFE	; 254
    4c90:	3f 4f       	sbci	r19, 0xFF	; 255
    4c92:	20 83       	st	Z, r18
    4c94:	31 83       	std	Z+1, r19	; 0x01
    4c96:	8a 81       	ldd	r24, Y+2	; 0x02
    4c98:	9b 81       	ldd	r25, Y+3	; 0x03
    4c9a:	82 83       	std	Z+2, r24	; 0x02
    4c9c:	93 83       	std	Z+3, r25	; 0x03
    4c9e:	45 2b       	or	r20, r21
    4ca0:	29 f4       	brne	.+10     	;  0x4cac
    4ca2:	e0 93 d5 22 	sts	0x22D5, r30
    4ca6:	f0 93 d6 22 	sts	0x22D6, r31
    4caa:	42 c0       	rjmp	.+132    	;  0x4d30
    4cac:	12 96       	adiw	r26, 0x02	; 2
    4cae:	ed 93       	st	X+, r30
    4cb0:	fc 93       	st	X, r31
    4cb2:	13 97       	sbiw	r26, 0x03	; 3
    4cb4:	ed 01       	movw	r28, r26
    4cb6:	49 91       	ld	r20, Y+
    4cb8:	59 91       	ld	r21, Y+
    4cba:	9e 01       	movw	r18, r28
    4cbc:	24 0f       	add	r18, r20
    4cbe:	35 1f       	adc	r19, r21
    4cc0:	e2 17       	cp	r30, r18
    4cc2:	f3 07       	cpc	r31, r19
    4cc4:	71 f4       	brne	.+28     	;  0x4ce2
    4cc6:	80 81       	ld	r24, Z
    4cc8:	91 81       	ldd	r25, Z+1	; 0x01
    4cca:	84 0f       	add	r24, r20
    4ccc:	95 1f       	adc	r25, r21
    4cce:	02 96       	adiw	r24, 0x02	; 2
    4cd0:	8d 93       	st	X+, r24
    4cd2:	9c 93       	st	X, r25
    4cd4:	11 97       	sbiw	r26, 0x01	; 1
    4cd6:	82 81       	ldd	r24, Z+2	; 0x02
    4cd8:	93 81       	ldd	r25, Z+3	; 0x03
    4cda:	12 96       	adiw	r26, 0x02	; 2
    4cdc:	8d 93       	st	X+, r24
    4cde:	9c 93       	st	X, r25
    4ce0:	13 97       	sbiw	r26, 0x03	; 3
    4ce2:	e0 e0       	ldi	r30, 0x00	; 0
    4ce4:	f0 e0       	ldi	r31, 0x00	; 0
    4ce6:	d8 01       	movw	r26, r16
    4ce8:	12 96       	adiw	r26, 0x02	; 2
    4cea:	8d 91       	ld	r24, X+
    4cec:	9c 91       	ld	r25, X
    4cee:	13 97       	sbiw	r26, 0x03	; 3
    4cf0:	00 97       	sbiw	r24, 0x00	; 0
    4cf2:	19 f0       	breq	.+6      	;  0x4cfa
    4cf4:	f8 01       	movw	r30, r16
    4cf6:	8c 01       	movw	r16, r24
    4cf8:	f6 cf       	rjmp	.-20     	;  0x4ce6
    4cfa:	8d 91       	ld	r24, X+
    4cfc:	9c 91       	ld	r25, X
    4cfe:	98 01       	movw	r18, r16
    4d00:	2e 5f       	subi	r18, 0xFE	; 254
    4d02:	3f 4f       	sbci	r19, 0xFF	; 255
    4d04:	82 0f       	add	r24, r18
    4d06:	93 1f       	adc	r25, r19
    4d08:	20 91 d3 22 	lds	r18, 0x22D3
    4d0c:	30 91 d4 22 	lds	r19, 0x22D4
    4d10:	28 17       	cp	r18, r24
    4d12:	39 07       	cpc	r19, r25
    4d14:	69 f4       	brne	.+26     	;  0x4d30
    4d16:	30 97       	sbiw	r30, 0x00	; 0
    4d18:	29 f4       	brne	.+10     	;  0x4d24
    4d1a:	10 92 d5 22 	sts	0x22D5, r1
    4d1e:	10 92 d6 22 	sts	0x22D6, r1
    4d22:	02 c0       	rjmp	.+4      	;  0x4d28
    4d24:	12 82       	std	Z+2, r1	; 0x02
    4d26:	13 82       	std	Z+3, r1	; 0x03
    4d28:	00 93 d3 22 	sts	0x22D3, r16
    4d2c:	10 93 d4 22 	sts	0x22D4, r17
    4d30:	df 91       	pop	r29
    4d32:	cf 91       	pop	r28
    4d34:	1f 91       	pop	r17
    4d36:	0f 91       	pop	r16
    4d38:	08 95       	ret
    4d3a:	2f 92       	push	r2
    4d3c:	3f 92       	push	r3
    4d3e:	4f 92       	push	r4
    4d40:	5f 92       	push	r5
    4d42:	6f 92       	push	r6
    4d44:	7f 92       	push	r7
    4d46:	8f 92       	push	r8
    4d48:	9f 92       	push	r9
    4d4a:	af 92       	push	r10
    4d4c:	bf 92       	push	r11
    4d4e:	cf 92       	push	r12
    4d50:	df 92       	push	r13
    4d52:	ef 92       	push	r14
    4d54:	ff 92       	push	r15
    4d56:	0f 93       	push	r16
    4d58:	1f 93       	push	r17
    4d5a:	cf 93       	push	r28
    4d5c:	df 93       	push	r29
    4d5e:	5c 01       	movw	r10, r24
    4d60:	6b 01       	movw	r12, r22
    4d62:	7a 01       	movw	r14, r20
    4d64:	61 15       	cp	r22, r1
    4d66:	71 05       	cpc	r23, r1
    4d68:	19 f0       	breq	.+6      	;  0x4d70
    4d6a:	fb 01       	movw	r30, r22
    4d6c:	80 83       	st	Z, r24
    4d6e:	91 83       	std	Z+1, r25	; 0x01
    4d70:	e1 14       	cp	r14, r1
    4d72:	f1 04       	cpc	r15, r1
    4d74:	29 f0       	breq	.+10     	;  0x4d80
    4d76:	c7 01       	movw	r24, r14
    4d78:	02 97       	sbiw	r24, 0x02	; 2
    4d7a:	83 97       	sbiw	r24, 0x23	; 35
    4d7c:	08 f0       	brcs	.+2      	;  0x4d80
    4d7e:	f1 c0       	rjmp	.+482    	;  0x4f62
    4d80:	e5 01       	movw	r28, r10
    4d82:	21 96       	adiw	r28, 0x01	; 1
    4d84:	f5 01       	movw	r30, r10
    4d86:	10 81       	ld	r17, Z
    4d88:	81 2f       	mov	r24, r17
    4d8a:	90 e0       	ldi	r25, 0x00	; 0
    4d8c:	0e 94 cd 27 	call	0x4f9a	;  0x4f9a
    4d90:	89 2b       	or	r24, r25
    4d92:	11 f0       	breq	.+4      	;  0x4d98
    4d94:	5e 01       	movw	r10, r28
    4d96:	f4 cf       	rjmp	.-24     	;  0x4d80
    4d98:	1d 32       	cpi	r17, 0x2D	; 45
    4d9a:	29 f4       	brne	.+10     	;  0x4da6
    4d9c:	21 96       	adiw	r28, 0x01	; 1
    4d9e:	f5 01       	movw	r30, r10
    4da0:	11 81       	ldd	r17, Z+1	; 0x01
    4da2:	01 e0       	ldi	r16, 0x01	; 1
    4da4:	07 c0       	rjmp	.+14     	;  0x4db4
    4da6:	1b 32       	cpi	r17, 0x2B	; 43
    4da8:	21 f4       	brne	.+8      	;  0x4db2
    4daa:	e5 01       	movw	r28, r10
    4dac:	22 96       	adiw	r28, 0x02	; 2
    4dae:	f5 01       	movw	r30, r10
    4db0:	11 81       	ldd	r17, Z+1	; 0x01
    4db2:	00 e0       	ldi	r16, 0x00	; 0
    4db4:	e1 14       	cp	r14, r1
    4db6:	f1 04       	cpc	r15, r1
    4db8:	59 f1       	breq	.+86     	;  0x4e10
    4dba:	f0 e1       	ldi	r31, 0x10	; 16
    4dbc:	ef 16       	cp	r14, r31
    4dbe:	f1 04       	cpc	r15, r1
    4dc0:	61 f4       	brne	.+24     	;  0x4dda
    4dc2:	10 33       	cpi	r17, 0x30	; 48
    4dc4:	e1 f4       	brne	.+56     	;  0x4dfe
    4dc6:	88 81       	ld	r24, Y
    4dc8:	8f 7d       	andi	r24, 0xDF	; 223
    4dca:	88 35       	cpi	r24, 0x58	; 88
    4dcc:	69 f5       	brne	.+90     	;  0x4e28
    4dce:	19 81       	ldd	r17, Y+1	; 0x01
    4dd0:	22 96       	adiw	r28, 0x02	; 2
    4dd2:	02 60       	ori	r16, 0x02	; 2
    4dd4:	70 e1       	ldi	r23, 0x10	; 16
    4dd6:	e7 2e       	mov	r14, r23
    4dd8:	f1 2c       	mov	r15, r1
    4dda:	88 e0       	ldi	r24, 0x08	; 8
    4ddc:	e8 16       	cp	r14, r24
    4dde:	f1 04       	cpc	r15, r1
    4de0:	39 f1       	breq	.+78     	;  0x4e30
    4de2:	2c f4       	brge	.+10     	;  0x4dee
    4de4:	f2 e0       	ldi	r31, 0x02	; 2
    4de6:	ef 16       	cp	r14, r31
    4de8:	f1 04       	cpc	r15, r1
    4dea:	c9 f1       	breq	.+114    	;  0x4e5e
    4dec:	2a c0       	rjmp	.+84     	;  0x4e42
    4dee:	8a e0       	ldi	r24, 0x0A	; 10
    4df0:	e8 16       	cp	r14, r24
    4df2:	f1 04       	cpc	r15, r1
    4df4:	79 f0       	breq	.+30     	;  0x4e14
    4df6:	e0 e1       	ldi	r30, 0x10	; 16
    4df8:	ee 16       	cp	r14, r30
    4dfa:	f1 04       	cpc	r15, r1
    4dfc:	11 f5       	brne	.+68     	;  0x4e42
    4dfe:	50 e1       	ldi	r21, 0x10	; 16
    4e00:	e5 2e       	mov	r14, r21
    4e02:	f1 2c       	mov	r15, r1
    4e04:	81 2c       	mov	r8, r1
    4e06:	91 2c       	mov	r9, r1
    4e08:	a1 2c       	mov	r10, r1
    4e0a:	68 e0       	ldi	r22, 0x08	; 8
    4e0c:	b6 2e       	mov	r11, r22
    4e0e:	2c c0       	rjmp	.+88     	;  0x4e68
    4e10:	10 33       	cpi	r17, 0x30	; 48
    4e12:	c9 f2       	breq	.-78     	;  0x4dc6
    4e14:	3a e0       	ldi	r19, 0x0A	; 10
    4e16:	e3 2e       	mov	r14, r19
    4e18:	f1 2c       	mov	r15, r1
    4e1a:	4c ec       	ldi	r20, 0xCC	; 204
    4e1c:	84 2e       	mov	r8, r20
    4e1e:	98 2c       	mov	r9, r8
    4e20:	a8 2c       	mov	r10, r8
    4e22:	4c e0       	ldi	r20, 0x0C	; 12
    4e24:	b4 2e       	mov	r11, r20
    4e26:	20 c0       	rjmp	.+64     	;  0x4e68
    4e28:	10 e3       	ldi	r17, 0x30	; 48
    4e2a:	e1 14       	cp	r14, r1
    4e2c:	f1 04       	cpc	r15, r1
    4e2e:	a9 f6       	brne	.-86     	;  0x4dda
    4e30:	98 e0       	ldi	r25, 0x08	; 8
    4e32:	e9 2e       	mov	r14, r25
    4e34:	f1 2c       	mov	r15, r1
    4e36:	81 2c       	mov	r8, r1
    4e38:	91 2c       	mov	r9, r1
    4e3a:	a1 2c       	mov	r10, r1
    4e3c:	20 e1       	ldi	r18, 0x10	; 16
    4e3e:	b2 2e       	mov	r11, r18
    4e40:	13 c0       	rjmp	.+38     	;  0x4e68
    4e42:	60 e0       	ldi	r22, 0x00	; 0
    4e44:	70 e0       	ldi	r23, 0x00	; 0
    4e46:	80 e0       	ldi	r24, 0x00	; 0
    4e48:	90 e8       	ldi	r25, 0x80	; 128
    4e4a:	97 01       	movw	r18, r14
    4e4c:	0f 2c       	mov	r0, r15
    4e4e:	00 0c       	add	r0, r0
    4e50:	44 0b       	sbc	r20, r20
    4e52:	55 0b       	sbc	r21, r21
    4e54:	0e 94 eb 24 	call	0x49d6	;  0x49d6
    4e58:	49 01       	movw	r8, r18
    4e5a:	5a 01       	movw	r10, r20
    4e5c:	05 c0       	rjmp	.+10     	;  0x4e68
    4e5e:	81 2c       	mov	r8, r1
    4e60:	91 2c       	mov	r9, r1
    4e62:	a1 2c       	mov	r10, r1
    4e64:	80 e4       	ldi	r24, 0x40	; 64
    4e66:	b8 2e       	mov	r11, r24
    4e68:	60 e0       	ldi	r22, 0x00	; 0
    4e6a:	20 e0       	ldi	r18, 0x00	; 0
    4e6c:	30 e0       	ldi	r19, 0x00	; 0
    4e6e:	a9 01       	movw	r20, r18
    4e70:	27 01       	movw	r4, r14
    4e72:	0f 2c       	mov	r0, r15
    4e74:	00 0c       	add	r0, r0
    4e76:	66 08       	sbc	r6, r6
    4e78:	77 08       	sbc	r7, r7
    4e7a:	1e 01       	movw	r2, r28
    4e7c:	e0 ed       	ldi	r30, 0xD0	; 208
    4e7e:	e1 0f       	add	r30, r17
    4e80:	ea 30       	cpi	r30, 0x0A	; 10
    4e82:	60 f0       	brcs	.+24     	;  0x4e9c
    4e84:	8f eb       	ldi	r24, 0xBF	; 191
    4e86:	81 0f       	add	r24, r17
    4e88:	8a 31       	cpi	r24, 0x1A	; 26
    4e8a:	10 f4       	brcc	.+4      	;  0x4e90
    4e8c:	e9 ec       	ldi	r30, 0xC9	; 201
    4e8e:	05 c0       	rjmp	.+10     	;  0x4e9a
    4e90:	8f e9       	ldi	r24, 0x9F	; 159
    4e92:	81 0f       	add	r24, r17
    4e94:	8a 31       	cpi	r24, 0x1A	; 26
    4e96:	28 f5       	brcc	.+74     	;  0x4ee2
    4e98:	e9 ea       	ldi	r30, 0xA9	; 169
    4e9a:	e1 0f       	add	r30, r17
    4e9c:	8e 2f       	mov	r24, r30
    4e9e:	90 e0       	ldi	r25, 0x00	; 0
    4ea0:	8e 15       	cp	r24, r14
    4ea2:	9f 05       	cpc	r25, r15
    4ea4:	f4 f4       	brge	.+60     	;  0x4ee2
    4ea6:	67 fd       	sbrc	r22, 7
    4ea8:	18 c0       	rjmp	.+48     	;  0x4eda
    4eaa:	82 16       	cp	r8, r18
    4eac:	93 06       	cpc	r9, r19
    4eae:	a4 06       	cpc	r10, r20
    4eb0:	b5 06       	cpc	r11, r21
    4eb2:	90 f0       	brcs	.+36     	;  0x4ed8
    4eb4:	c3 01       	movw	r24, r6
    4eb6:	b2 01       	movw	r22, r4
    4eb8:	0e 94 b3 24 	call	0x4966	;  0x4966
    4ebc:	9b 01       	movw	r18, r22
    4ebe:	ac 01       	movw	r20, r24
    4ec0:	2e 0f       	add	r18, r30
    4ec2:	31 1d       	adc	r19, r1
    4ec4:	41 1d       	adc	r20, r1
    4ec6:	51 1d       	adc	r21, r1
    4ec8:	21 30       	cpi	r18, 0x01	; 1
    4eca:	31 05       	cpc	r19, r1
    4ecc:	41 05       	cpc	r20, r1
    4ece:	f0 e8       	ldi	r31, 0x80	; 128
    4ed0:	5f 07       	cpc	r21, r31
    4ed2:	10 f4       	brcc	.+4      	;  0x4ed8
    4ed4:	61 e0       	ldi	r22, 0x01	; 1
    4ed6:	01 c0       	rjmp	.+2      	;  0x4eda
    4ed8:	6f ef       	ldi	r22, 0xFF	; 255
    4eda:	21 96       	adiw	r28, 0x01	; 1
    4edc:	f1 01       	movw	r30, r2
    4ede:	10 81       	ld	r17, Z
    4ee0:	cc cf       	rjmp	.-104    	;  0x4e7a
    4ee2:	80 2f       	mov	r24, r16
    4ee4:	81 70       	andi	r24, 0x01	; 1
    4ee6:	c1 14       	cp	r12, r1
    4ee8:	d1 04       	cpc	r13, r1
    4eea:	71 f0       	breq	.+28     	;  0x4f08
    4eec:	66 23       	and	r22, r22
    4eee:	29 f0       	breq	.+10     	;  0x4efa
    4ef0:	21 97       	sbiw	r28, 0x01	; 1
    4ef2:	f6 01       	movw	r30, r12
    4ef4:	c0 83       	st	Z, r28
    4ef6:	d1 83       	std	Z+1, r29	; 0x01
    4ef8:	07 c0       	rjmp	.+14     	;  0x4f08
    4efa:	01 ff       	sbrs	r16, 1
    4efc:	19 c0       	rjmp	.+50     	;  0x4f30
    4efe:	22 97       	sbiw	r28, 0x02	; 2
    4f00:	f6 01       	movw	r30, r12
    4f02:	c0 83       	st	Z, r28
    4f04:	d1 83       	std	Z+1, r29	; 0x01
    4f06:	14 c0       	rjmp	.+40     	;  0x4f30
    4f08:	67 ff       	sbrs	r22, 7
    4f0a:	12 c0       	rjmp	.+36     	;  0x4f30
    4f0c:	81 11       	cpse	r24, r1
    4f0e:	05 c0       	rjmp	.+10     	;  0x4f1a
    4f10:	2f ef       	ldi	r18, 0xFF	; 255
    4f12:	3f ef       	ldi	r19, 0xFF	; 255
    4f14:	4f ef       	ldi	r20, 0xFF	; 255
    4f16:	5f e7       	ldi	r21, 0x7F	; 127
    4f18:	04 c0       	rjmp	.+8      	;  0x4f22
    4f1a:	20 e0       	ldi	r18, 0x00	; 0
    4f1c:	30 e0       	ldi	r19, 0x00	; 0
    4f1e:	40 e0       	ldi	r20, 0x00	; 0
    4f20:	50 e8       	ldi	r21, 0x80	; 128
    4f22:	82 e2       	ldi	r24, 0x22	; 34
    4f24:	90 e0       	ldi	r25, 0x00	; 0
    4f26:	80 93 d7 22 	sts	0x22D7, r24
    4f2a:	90 93 d8 22 	sts	0x22D8, r25
    4f2e:	16 c0       	rjmp	.+44     	;  0x4f5c
    4f30:	88 23       	and	r24, r24
    4f32:	41 f0       	breq	.+16     	;  0x4f44
    4f34:	50 95       	com	r21
    4f36:	40 95       	com	r20
    4f38:	30 95       	com	r19
    4f3a:	21 95       	neg	r18
    4f3c:	3f 4f       	sbci	r19, 0xFF	; 255
    4f3e:	4f 4f       	sbci	r20, 0xFF	; 255
    4f40:	5f 4f       	sbci	r21, 0xFF	; 255
    4f42:	0c c0       	rjmp	.+24     	;  0x4f5c
    4f44:	57 ff       	sbrs	r21, 7
    4f46:	0a c0       	rjmp	.+20     	;  0x4f5c
    4f48:	82 e2       	ldi	r24, 0x22	; 34
    4f4a:	90 e0       	ldi	r25, 0x00	; 0
    4f4c:	80 93 d7 22 	sts	0x22D7, r24
    4f50:	90 93 d8 22 	sts	0x22D8, r25
    4f54:	2f ef       	ldi	r18, 0xFF	; 255
    4f56:	3f ef       	ldi	r19, 0xFF	; 255
    4f58:	4f ef       	ldi	r20, 0xFF	; 255
    4f5a:	5f e7       	ldi	r21, 0x7F	; 127
    4f5c:	b9 01       	movw	r22, r18
    4f5e:	ca 01       	movw	r24, r20
    4f60:	04 c0       	rjmp	.+8      	;  0x4f6a
    4f62:	60 e0       	ldi	r22, 0x00	; 0
    4f64:	70 e0       	ldi	r23, 0x00	; 0
    4f66:	80 e0       	ldi	r24, 0x00	; 0
    4f68:	90 e0       	ldi	r25, 0x00	; 0
    4f6a:	df 91       	pop	r29
    4f6c:	cf 91       	pop	r28
    4f6e:	1f 91       	pop	r17
    4f70:	0f 91       	pop	r16
    4f72:	ff 90       	pop	r15
    4f74:	ef 90       	pop	r14
    4f76:	df 90       	pop	r13
    4f78:	cf 90       	pop	r12
    4f7a:	bf 90       	pop	r11
    4f7c:	af 90       	pop	r10
    4f7e:	9f 90       	pop	r9
    4f80:	8f 90       	pop	r8
    4f82:	7f 90       	pop	r7
    4f84:	6f 90       	pop	r6
    4f86:	5f 90       	pop	r5
    4f88:	4f 90       	pop	r4
    4f8a:	3f 90       	pop	r3
    4f8c:	2f 90       	pop	r2
    4f8e:	08 95       	ret
    4f90:	81 e0       	ldi	r24, 0x01	; 1
    4f92:	90 e0       	ldi	r25, 0x00	; 0
    4f94:	f8 94       	cli
    4f96:	0c 94 2c 2b 	jmp	0x5658	;  0x5658
    4f9a:	91 11       	cpse	r25, r1
    4f9c:	0c 94 4a 2a 	jmp	0x5494	;  0x5494
    4fa0:	80 32       	cpi	r24, 0x20	; 32
    4fa2:	19 f0       	breq	.+6      	;  0x4faa
    4fa4:	89 50       	subi	r24, 0x09	; 9
    4fa6:	85 50       	subi	r24, 0x05	; 5
    4fa8:	c8 f7       	brcc	.-14     	;  0x4f9c
    4faa:	08 95       	ret
    4fac:	fb 01       	movw	r30, r22
    4fae:	dc 01       	movw	r26, r24
    4fb0:	02 c0       	rjmp	.+4      	;  0x4fb6
    4fb2:	05 90       	lpm	r0, Z+
    4fb4:	0d 92       	st	X+, r0
    4fb6:	41 50       	subi	r20, 0x01	; 1
    4fb8:	50 40       	sbci	r21, 0x00	; 0
    4fba:	d8 f7       	brcc	.-10     	;  0x4fb2
    4fbc:	08 95       	ret
    4fbe:	fb 01       	movw	r30, r22
    4fc0:	dc 01       	movw	r26, r24
    4fc2:	04 c0       	rjmp	.+8      	;  0x4fcc
    4fc4:	8d 91       	ld	r24, X+
    4fc6:	01 90       	ld	r0, Z+
    4fc8:	80 19       	sub	r24, r0
    4fca:	21 f4       	brne	.+8      	;  0x4fd4
    4fcc:	41 50       	subi	r20, 0x01	; 1
    4fce:	50 40       	sbci	r21, 0x00	; 0
    4fd0:	c8 f7       	brcc	.-14     	;  0x4fc4
    4fd2:	88 1b       	sub	r24, r24
    4fd4:	99 0b       	sbc	r25, r25
    4fd6:	08 95       	ret
    4fd8:	fb 01       	movw	r30, r22
    4fda:	dc 01       	movw	r26, r24
    4fdc:	02 c0       	rjmp	.+4      	;  0x4fe2
    4fde:	01 90       	ld	r0, Z+
    4fe0:	0d 92       	st	X+, r0
    4fe2:	41 50       	subi	r20, 0x01	; 1
    4fe4:	50 40       	sbci	r21, 0x00	; 0
    4fe6:	d8 f7       	brcc	.-10     	;  0x4fde
    4fe8:	08 95       	ret
    4fea:	68 17       	cp	r22, r24
    4fec:	79 07       	cpc	r23, r25
    4fee:	68 f4       	brcc	.+26     	;  0x500a
    4ff0:	fb 01       	movw	r30, r22
    4ff2:	dc 01       	movw	r26, r24
    4ff4:	e4 0f       	add	r30, r20
    4ff6:	f5 1f       	adc	r31, r21
    4ff8:	a4 0f       	add	r26, r20
    4ffa:	b5 1f       	adc	r27, r21
    4ffc:	02 c0       	rjmp	.+4      	;  0x5002
    4ffe:	02 90       	ld	r0, -Z
    5000:	0e 92       	st	-X, r0
    5002:	41 50       	subi	r20, 0x01	; 1
    5004:	50 40       	sbci	r21, 0x00	; 0
    5006:	d8 f7       	brcc	.-10     	;  0x4ffe
    5008:	08 95       	ret
    500a:	0c 94 ec 27 	jmp	0x4fd8	;  0x4fd8
    500e:	dc 01       	movw	r26, r24
    5010:	01 c0       	rjmp	.+2      	;  0x5014
    5012:	6d 93       	st	X+, r22
    5014:	41 50       	subi	r20, 0x01	; 1
    5016:	50 40       	sbci	r21, 0x00	; 0
    5018:	e0 f7       	brcc	.-8      	;  0x5012
    501a:	08 95       	ret
	
    501c:	fc 01       	movw	r30, r24
    501e:	81 91       	ld	r24, Z+
    5020:	86 17       	cp	r24, r22
    5022:	21 f0       	breq	.+8      	;  0x502c
	
    5024:	88 23       	and	r24, r24
    5026:	d9 f7       	brne	.-10     	;  0x501e
	
    5028:	99 27       	eor	r25, r25
    502a:	08 95       	ret
	
    502c:	31 97       	sbiw	r30, 0x01	; 1
    502e:	cf 01       	movw	r24, r30
    5030:	08 95       	ret
	
    5032:	fc 01       	movw	r30, r24
    5034:	01 90       	ld	r0, Z+
    5036:	00 20       	and	r0, r0
    5038:	e9 f7       	brne	.-6      	;  0x5034
    503a:	80 95       	com	r24
    503c:	90 95       	com	r25
    503e:	8e 0f       	add	r24, r30
    5040:	9f 1f       	adc	r25, r31
    5042:	08 95       	ret
    5044:	0f 93       	push	r16
    5046:	1f 93       	push	r17
    5048:	cf 93       	push	r28
    504a:	df 93       	push	r29
    504c:	cd b7       	in	r28, 0x3d	; 61
    504e:	de b7       	in	r29, 0x3e	; 62
    5050:	2e 97       	sbiw	r28, 0x0e	; 14
    5052:	cd bf       	out	0x3d, r28	; 61
    5054:	de bf       	out	0x3e, r29	; 62
    5056:	8c 01       	movw	r16, r24
    5058:	ca 01       	movw	r24, r20
    505a:	46 e0       	ldi	r20, 0x06	; 6
    505c:	4c 83       	std	Y+4, r20	; 0x04
    505e:	09 83       	std	Y+1, r16	; 0x01
    5060:	1a 83       	std	Y+2, r17	; 0x02
    5062:	77 ff       	sbrs	r23, 7
    5064:	02 c0       	rjmp	.+4      	;  0x506a
    5066:	60 e0       	ldi	r22, 0x00	; 0
    5068:	70 e8       	ldi	r23, 0x80	; 128
    506a:	fb 01       	movw	r30, r22
    506c:	31 97       	sbiw	r30, 0x01	; 1
    506e:	ed 83       	std	Y+5, r30	; 0x05
    5070:	fe 83       	std	Y+6, r31	; 0x06
    5072:	a9 01       	movw	r20, r18
    5074:	bc 01       	movw	r22, r24
    5076:	ce 01       	movw	r24, r28
    5078:	01 96       	adiw	r24, 0x01	; 1
    507a:	0e 94 55 28 	call	0x50aa	;  0x50aa
    507e:	4d 81       	ldd	r20, Y+5	; 0x05
    5080:	5e 81       	ldd	r21, Y+6	; 0x06
    5082:	57 fd       	sbrc	r21, 7
    5084:	0a c0       	rjmp	.+20     	;  0x509a
    5086:	2f 81       	ldd	r18, Y+7	; 0x07
    5088:	38 85       	ldd	r19, Y+8	; 0x08
    508a:	42 17       	cp	r20, r18
    508c:	53 07       	cpc	r21, r19
    508e:	0c f4       	brge	.+2      	;  0x5092
    5090:	9a 01       	movw	r18, r20
    5092:	f8 01       	movw	r30, r16
    5094:	e2 0f       	add	r30, r18
    5096:	f3 1f       	adc	r31, r19
    5098:	10 82       	st	Z, r1
    509a:	2e 96       	adiw	r28, 0x0e	; 14
    509c:	cd bf       	out	0x3d, r28	; 61
    509e:	de bf       	out	0x3e, r29	; 62
    50a0:	df 91       	pop	r29
    50a2:	cf 91       	pop	r28
    50a4:	1f 91       	pop	r17
    50a6:	0f 91       	pop	r16
    50a8:	08 95       	ret
    50aa:	2f 92       	push	r2
    50ac:	3f 92       	push	r3
    50ae:	4f 92       	push	r4
    50b0:	5f 92       	push	r5
    50b2:	6f 92       	push	r6
    50b4:	7f 92       	push	r7
    50b6:	8f 92       	push	r8
    50b8:	9f 92       	push	r9
    50ba:	af 92       	push	r10
    50bc:	bf 92       	push	r11
    50be:	cf 92       	push	r12
    50c0:	df 92       	push	r13
    50c2:	ef 92       	push	r14
    50c4:	ff 92       	push	r15
    50c6:	0f 93       	push	r16
    50c8:	1f 93       	push	r17
    50ca:	cf 93       	push	r28
    50cc:	df 93       	push	r29
    50ce:	cd b7       	in	r28, 0x3d	; 61
    50d0:	de b7       	in	r29, 0x3e	; 62
    50d2:	2c 97       	sbiw	r28, 0x0c	; 12
    50d4:	cd bf       	out	0x3d, r28	; 61
    50d6:	de bf       	out	0x3e, r29	; 62
    50d8:	7c 01       	movw	r14, r24
    50da:	6b 01       	movw	r12, r22
    50dc:	8a 01       	movw	r16, r20
    50de:	fc 01       	movw	r30, r24
    50e0:	16 82       	std	Z+6, r1	; 0x06
    50e2:	17 82       	std	Z+7, r1	; 0x07
    50e4:	83 81       	ldd	r24, Z+3	; 0x03
    50e6:	81 ff       	sbrs	r24, 1
    50e8:	bd c1       	rjmp	.+890    	;  0x5464
    50ea:	ce 01       	movw	r24, r28
    50ec:	01 96       	adiw	r24, 0x01	; 1
    50ee:	4c 01       	movw	r8, r24
    50f0:	f7 01       	movw	r30, r14
    50f2:	93 81       	ldd	r25, Z+3	; 0x03
    50f4:	f6 01       	movw	r30, r12
    50f6:	93 fd       	sbrc	r25, 3
    50f8:	85 91       	lpm	r24, Z+
    50fa:	93 ff       	sbrs	r25, 3
    50fc:	81 91       	ld	r24, Z+
    50fe:	6f 01       	movw	r12, r30
    5100:	88 23       	and	r24, r24
    5102:	09 f4       	brne	.+2      	;  0x5106
    5104:	ab c1       	rjmp	.+854    	;  0x545c
    5106:	85 32       	cpi	r24, 0x25	; 37
    5108:	39 f4       	brne	.+14     	;  0x5118
    510a:	93 fd       	sbrc	r25, 3
    510c:	85 91       	lpm	r24, Z+
    510e:	93 ff       	sbrs	r25, 3
    5110:	81 91       	ld	r24, Z+
    5112:	6f 01       	movw	r12, r30
    5114:	85 32       	cpi	r24, 0x25	; 37
    5116:	29 f4       	brne	.+10     	;  0x5122
    5118:	b7 01       	movw	r22, r14
    511a:	90 e0       	ldi	r25, 0x00	; 0
    511c:	0e 94 63 2a 	call	0x54c6	;  0x54c6
    5120:	e7 cf       	rjmp	.-50     	;  0x50f0
    5122:	51 2c       	mov	r5, r1
    5124:	31 2c       	mov	r3, r1
    5126:	20 e0       	ldi	r18, 0x00	; 0
    5128:	20 32       	cpi	r18, 0x20	; 32
    512a:	a0 f4       	brcc	.+40     	;  0x5154
    512c:	8b 32       	cpi	r24, 0x2B	; 43
    512e:	69 f0       	breq	.+26     	;  0x514a
    5130:	30 f4       	brcc	.+12     	;  0x513e
    5132:	80 32       	cpi	r24, 0x20	; 32
    5134:	59 f0       	breq	.+22     	;  0x514c
    5136:	83 32       	cpi	r24, 0x23	; 35
    5138:	69 f4       	brne	.+26     	;  0x5154
    513a:	20 61       	ori	r18, 0x10	; 16
    513c:	2c c0       	rjmp	.+88     	;  0x5196
    513e:	8d 32       	cpi	r24, 0x2D	; 45
    5140:	39 f0       	breq	.+14     	;  0x5150
    5142:	80 33       	cpi	r24, 0x30	; 48
    5144:	39 f4       	brne	.+14     	;  0x5154
    5146:	21 60       	ori	r18, 0x01	; 1
    5148:	26 c0       	rjmp	.+76     	;  0x5196
    514a:	22 60       	ori	r18, 0x02	; 2
    514c:	24 60       	ori	r18, 0x04	; 4
    514e:	23 c0       	rjmp	.+70     	;  0x5196
    5150:	28 60       	ori	r18, 0x08	; 8
    5152:	21 c0       	rjmp	.+66     	;  0x5196
    5154:	27 fd       	sbrc	r18, 7
    5156:	27 c0       	rjmp	.+78     	;  0x51a6
    5158:	30 ed       	ldi	r19, 0xD0	; 208
    515a:	38 0f       	add	r19, r24
    515c:	3a 30       	cpi	r19, 0x0A	; 10
    515e:	78 f4       	brcc	.+30     	;  0x517e
    5160:	26 ff       	sbrs	r18, 6
    5162:	06 c0       	rjmp	.+12     	;  0x5170
    5164:	fa e0       	ldi	r31, 0x0A	; 10
    5166:	5f 9e       	mul	r5, r31
    5168:	30 0d       	add	r19, r0
    516a:	11 24       	eor	r1, r1
    516c:	53 2e       	mov	r5, r19
    516e:	13 c0       	rjmp	.+38     	;  0x5196
    5170:	8a e0       	ldi	r24, 0x0A	; 10
    5172:	38 9e       	mul	r3, r24
    5174:	30 0d       	add	r19, r0
    5176:	11 24       	eor	r1, r1
    5178:	33 2e       	mov	r3, r19
    517a:	20 62       	ori	r18, 0x20	; 32
    517c:	0c c0       	rjmp	.+24     	;  0x5196
    517e:	8e 32       	cpi	r24, 0x2E	; 46
    5180:	21 f4       	brne	.+8      	;  0x518a
    5182:	26 fd       	sbrc	r18, 6
    5184:	6b c1       	rjmp	.+726    	;  0x545c
    5186:	20 64       	ori	r18, 0x40	; 64
    5188:	06 c0       	rjmp	.+12     	;  0x5196
    518a:	8c 36       	cpi	r24, 0x6C	; 108
    518c:	11 f4       	brne	.+4      	;  0x5192
    518e:	20 68       	ori	r18, 0x80	; 128
    5190:	02 c0       	rjmp	.+4      	;  0x5196
    5192:	88 36       	cpi	r24, 0x68	; 104
    5194:	41 f4       	brne	.+16     	;  0x51a6
    5196:	f6 01       	movw	r30, r12
    5198:	93 fd       	sbrc	r25, 3
    519a:	85 91       	lpm	r24, Z+
    519c:	93 ff       	sbrs	r25, 3
    519e:	81 91       	ld	r24, Z+
    51a0:	6f 01       	movw	r12, r30
    51a2:	81 11       	cpse	r24, r1
    51a4:	c1 cf       	rjmp	.-126    	;  0x5128
    51a6:	98 2f       	mov	r25, r24
    51a8:	9f 7d       	andi	r25, 0xDF	; 223
    51aa:	95 54       	subi	r25, 0x45	; 69
    51ac:	93 30       	cpi	r25, 0x03	; 3
    51ae:	28 f4       	brcc	.+10     	;  0x51ba
    51b0:	0c 5f       	subi	r16, 0xFC	; 252
    51b2:	1f 4f       	sbci	r17, 0xFF	; 255
    51b4:	ff e3       	ldi	r31, 0x3F	; 63
    51b6:	f9 83       	std	Y+1, r31	; 0x01
    51b8:	0d c0       	rjmp	.+26     	;  0x51d4
    51ba:	83 36       	cpi	r24, 0x63	; 99
    51bc:	31 f0       	breq	.+12     	;  0x51ca
    51be:	83 37       	cpi	r24, 0x73	; 115
    51c0:	71 f0       	breq	.+28     	;  0x51de
    51c2:	83 35       	cpi	r24, 0x53	; 83
    51c4:	09 f0       	breq	.+2      	;  0x51c8
    51c6:	5b c0       	rjmp	.+182    	;  0x527e
    51c8:	22 c0       	rjmp	.+68     	;  0x520e
    51ca:	f8 01       	movw	r30, r16
    51cc:	80 81       	ld	r24, Z
    51ce:	89 83       	std	Y+1, r24	; 0x01
    51d0:	0e 5f       	subi	r16, 0xFE	; 254
    51d2:	1f 4f       	sbci	r17, 0xFF	; 255
    51d4:	44 24       	eor	r4, r4
    51d6:	43 94       	inc	r4
    51d8:	51 2c       	mov	r5, r1
    51da:	54 01       	movw	r10, r8
    51dc:	15 c0       	rjmp	.+42     	;  0x5208
    51de:	38 01       	movw	r6, r16
    51e0:	f2 e0       	ldi	r31, 0x02	; 2
    51e2:	6f 0e       	add	r6, r31
    51e4:	71 1c       	adc	r7, r1
    51e6:	f8 01       	movw	r30, r16
    51e8:	a0 80       	ld	r10, Z
    51ea:	b1 80       	ldd	r11, Z+1	; 0x01
    51ec:	26 ff       	sbrs	r18, 6
    51ee:	03 c0       	rjmp	.+6      	;  0x51f6
    51f0:	65 2d       	mov	r22, r5
    51f2:	70 e0       	ldi	r23, 0x00	; 0
    51f4:	02 c0       	rjmp	.+4      	;  0x51fa
    51f6:	6f ef       	ldi	r22, 0xFF	; 255
    51f8:	7f ef       	ldi	r23, 0xFF	; 255
    51fa:	c5 01       	movw	r24, r10
    51fc:	2c 87       	std	Y+12, r18	; 0x0c
    51fe:	0e 94 58 2a 	call	0x54b0	;  0x54b0
    5202:	2c 01       	movw	r4, r24
    5204:	83 01       	movw	r16, r6
    5206:	2c 85       	ldd	r18, Y+12	; 0x0c
    5208:	2f 77       	andi	r18, 0x7F	; 127
    520a:	22 2e       	mov	r2, r18
    520c:	17 c0       	rjmp	.+46     	;  0x523c
    520e:	38 01       	movw	r6, r16
    5210:	f2 e0       	ldi	r31, 0x02	; 2
    5212:	6f 0e       	add	r6, r31
    5214:	71 1c       	adc	r7, r1
    5216:	f8 01       	movw	r30, r16
    5218:	a0 80       	ld	r10, Z
    521a:	b1 80       	ldd	r11, Z+1	; 0x01
    521c:	26 ff       	sbrs	r18, 6
    521e:	03 c0       	rjmp	.+6      	;  0x5226
    5220:	65 2d       	mov	r22, r5
    5222:	70 e0       	ldi	r23, 0x00	; 0
    5224:	02 c0       	rjmp	.+4      	;  0x522a
    5226:	6f ef       	ldi	r22, 0xFF	; 255
    5228:	7f ef       	ldi	r23, 0xFF	; 255
    522a:	c5 01       	movw	r24, r10
    522c:	2c 87       	std	Y+12, r18	; 0x0c
    522e:	0e 94 4d 2a 	call	0x549a	;  0x549a
    5232:	2c 01       	movw	r4, r24
    5234:	2c 85       	ldd	r18, Y+12	; 0x0c
    5236:	20 68       	ori	r18, 0x80	; 128
    5238:	22 2e       	mov	r2, r18
    523a:	83 01       	movw	r16, r6
    523c:	23 fc       	sbrc	r2, 3
    523e:	1b c0       	rjmp	.+54     	;  0x5276
    5240:	83 2d       	mov	r24, r3
    5242:	90 e0       	ldi	r25, 0x00	; 0
    5244:	48 16       	cp	r4, r24
    5246:	59 06       	cpc	r5, r25
    5248:	b0 f4       	brcc	.+44     	;  0x5276
    524a:	b7 01       	movw	r22, r14
    524c:	80 e2       	ldi	r24, 0x20	; 32
    524e:	90 e0       	ldi	r25, 0x00	; 0
    5250:	0e 94 63 2a 	call	0x54c6	;  0x54c6
    5254:	3a 94       	dec	r3
    5256:	f4 cf       	rjmp	.-24     	;  0x5240
    5258:	f5 01       	movw	r30, r10
    525a:	27 fc       	sbrc	r2, 7
    525c:	85 91       	lpm	r24, Z+
    525e:	27 fe       	sbrs	r2, 7
    5260:	81 91       	ld	r24, Z+
    5262:	5f 01       	movw	r10, r30
    5264:	b7 01       	movw	r22, r14
    5266:	90 e0       	ldi	r25, 0x00	; 0
    5268:	0e 94 63 2a 	call	0x54c6	;  0x54c6
    526c:	31 10       	cpse	r3, r1
    526e:	3a 94       	dec	r3
    5270:	f1 e0       	ldi	r31, 0x01	; 1
    5272:	4f 1a       	sub	r4, r31
    5274:	51 08       	sbc	r5, r1
    5276:	41 14       	cp	r4, r1
    5278:	51 04       	cpc	r5, r1
    527a:	71 f7       	brne	.-36     	;  0x5258
    527c:	e5 c0       	rjmp	.+458    	;  0x5448
    527e:	84 36       	cpi	r24, 0x64	; 100
    5280:	11 f0       	breq	.+4      	;  0x5286
    5282:	89 36       	cpi	r24, 0x69	; 105
    5284:	39 f5       	brne	.+78     	;  0x52d4
    5286:	f8 01       	movw	r30, r16
    5288:	27 ff       	sbrs	r18, 7
    528a:	07 c0       	rjmp	.+14     	;  0x529a
    528c:	60 81       	ld	r22, Z
    528e:	71 81       	ldd	r23, Z+1	; 0x01
    5290:	82 81       	ldd	r24, Z+2	; 0x02
    5292:	93 81       	ldd	r25, Z+3	; 0x03
    5294:	0c 5f       	subi	r16, 0xFC	; 252
    5296:	1f 4f       	sbci	r17, 0xFF	; 255
    5298:	08 c0       	rjmp	.+16     	;  0x52aa
    529a:	60 81       	ld	r22, Z
    529c:	71 81       	ldd	r23, Z+1	; 0x01
    529e:	07 2e       	mov	r0, r23
    52a0:	00 0c       	add	r0, r0
    52a2:	88 0b       	sbc	r24, r24
    52a4:	99 0b       	sbc	r25, r25
    52a6:	0e 5f       	subi	r16, 0xFE	; 254
    52a8:	1f 4f       	sbci	r17, 0xFF	; 255
    52aa:	2f 76       	andi	r18, 0x6F	; 111
    52ac:	72 2e       	mov	r7, r18
    52ae:	97 ff       	sbrs	r25, 7
    52b0:	09 c0       	rjmp	.+18     	;  0x52c4
    52b2:	90 95       	com	r25
    52b4:	80 95       	com	r24
    52b6:	70 95       	com	r23
    52b8:	61 95       	neg	r22
    52ba:	7f 4f       	sbci	r23, 0xFF	; 255
    52bc:	8f 4f       	sbci	r24, 0xFF	; 255
    52be:	9f 4f       	sbci	r25, 0xFF	; 255
    52c0:	20 68       	ori	r18, 0x80	; 128
    52c2:	72 2e       	mov	r7, r18
    52c4:	2a e0       	ldi	r18, 0x0A	; 10
    52c6:	30 e0       	ldi	r19, 0x00	; 0
    52c8:	a4 01       	movw	r20, r8
    52ca:	0e 94 9b 2a 	call	0x5536	;  0x5536
    52ce:	a8 2e       	mov	r10, r24
    52d0:	a8 18       	sub	r10, r8
    52d2:	44 c0       	rjmp	.+136    	;  0x535c
    52d4:	85 37       	cpi	r24, 0x75	; 117
    52d6:	29 f4       	brne	.+10     	;  0x52e2
    52d8:	2f 7e       	andi	r18, 0xEF	; 239
    52da:	b2 2e       	mov	r11, r18
    52dc:	2a e0       	ldi	r18, 0x0A	; 10
    52de:	30 e0       	ldi	r19, 0x00	; 0
    52e0:	25 c0       	rjmp	.+74     	;  0x532c
    52e2:	f2 2f       	mov	r31, r18
    52e4:	f9 7f       	andi	r31, 0xF9	; 249
    52e6:	bf 2e       	mov	r11, r31
    52e8:	8f 36       	cpi	r24, 0x6F	; 111
    52ea:	c1 f0       	breq	.+48     	;  0x531c
    52ec:	18 f4       	brcc	.+6      	;  0x52f4
    52ee:	88 35       	cpi	r24, 0x58	; 88
    52f0:	79 f0       	breq	.+30     	;  0x5310
    52f2:	b4 c0       	rjmp	.+360    	;  0x545c
    52f4:	80 37       	cpi	r24, 0x70	; 112
    52f6:	19 f0       	breq	.+6      	;  0x52fe
    52f8:	88 37       	cpi	r24, 0x78	; 120
    52fa:	21 f0       	breq	.+8      	;  0x5304
    52fc:	af c0       	rjmp	.+350    	;  0x545c
    52fe:	2f 2f       	mov	r18, r31
    5300:	20 61       	ori	r18, 0x10	; 16
    5302:	b2 2e       	mov	r11, r18
    5304:	b4 fe       	sbrs	r11, 4
    5306:	0d c0       	rjmp	.+26     	;  0x5322
    5308:	8b 2d       	mov	r24, r11
    530a:	84 60       	ori	r24, 0x04	; 4
    530c:	b8 2e       	mov	r11, r24
    530e:	09 c0       	rjmp	.+18     	;  0x5322
    5310:	24 ff       	sbrs	r18, 4
    5312:	0a c0       	rjmp	.+20     	;  0x5328
    5314:	9f 2f       	mov	r25, r31
    5316:	96 60       	ori	r25, 0x06	; 6
    5318:	b9 2e       	mov	r11, r25
    531a:	06 c0       	rjmp	.+12     	;  0x5328
    531c:	28 e0       	ldi	r18, 0x08	; 8
    531e:	30 e0       	ldi	r19, 0x00	; 0
    5320:	05 c0       	rjmp	.+10     	;  0x532c
    5322:	20 e1       	ldi	r18, 0x10	; 16
    5324:	30 e0       	ldi	r19, 0x00	; 0
    5326:	02 c0       	rjmp	.+4      	;  0x532c
    5328:	20 e1       	ldi	r18, 0x10	; 16
    532a:	32 e0       	ldi	r19, 0x02	; 2
    532c:	f8 01       	movw	r30, r16
    532e:	b7 fe       	sbrs	r11, 7
    5330:	07 c0       	rjmp	.+14     	;  0x5340
    5332:	60 81       	ld	r22, Z
    5334:	71 81       	ldd	r23, Z+1	; 0x01
    5336:	82 81       	ldd	r24, Z+2	; 0x02
    5338:	93 81       	ldd	r25, Z+3	; 0x03
    533a:	0c 5f       	subi	r16, 0xFC	; 252
    533c:	1f 4f       	sbci	r17, 0xFF	; 255
    533e:	06 c0       	rjmp	.+12     	;  0x534c
    5340:	60 81       	ld	r22, Z
    5342:	71 81       	ldd	r23, Z+1	; 0x01
    5344:	80 e0       	ldi	r24, 0x00	; 0
    5346:	90 e0       	ldi	r25, 0x00	; 0
    5348:	0e 5f       	subi	r16, 0xFE	; 254
    534a:	1f 4f       	sbci	r17, 0xFF	; 255
    534c:	a4 01       	movw	r20, r8
    534e:	0e 94 9b 2a 	call	0x5536	;  0x5536
    5352:	a8 2e       	mov	r10, r24
    5354:	a8 18       	sub	r10, r8
    5356:	fb 2d       	mov	r31, r11
    5358:	ff 77       	andi	r31, 0x7F	; 127
    535a:	7f 2e       	mov	r7, r31
    535c:	76 fe       	sbrs	r7, 6
    535e:	0b c0       	rjmp	.+22     	;  0x5376
    5360:	37 2d       	mov	r19, r7
    5362:	3e 7f       	andi	r19, 0xFE	; 254
    5364:	a5 14       	cp	r10, r5
    5366:	50 f4       	brcc	.+20     	;  0x537c
    5368:	74 fe       	sbrs	r7, 4
    536a:	0a c0       	rjmp	.+20     	;  0x5380
    536c:	72 fc       	sbrc	r7, 2
    536e:	08 c0       	rjmp	.+16     	;  0x5380
    5370:	37 2d       	mov	r19, r7
    5372:	3e 7e       	andi	r19, 0xEE	; 238
    5374:	05 c0       	rjmp	.+10     	;  0x5380
    5376:	ba 2c       	mov	r11, r10
    5378:	37 2d       	mov	r19, r7
    537a:	03 c0       	rjmp	.+6      	;  0x5382
    537c:	ba 2c       	mov	r11, r10
    537e:	01 c0       	rjmp	.+2      	;  0x5382
    5380:	b5 2c       	mov	r11, r5
    5382:	34 ff       	sbrs	r19, 4
    5384:	0d c0       	rjmp	.+26     	;  0x53a0
    5386:	fe 01       	movw	r30, r28
    5388:	ea 0d       	add	r30, r10
    538a:	f1 1d       	adc	r31, r1
    538c:	80 81       	ld	r24, Z
    538e:	80 33       	cpi	r24, 0x30	; 48
    5390:	11 f4       	brne	.+4      	;  0x5396
    5392:	39 7e       	andi	r19, 0xE9	; 233
    5394:	09 c0       	rjmp	.+18     	;  0x53a8
    5396:	32 ff       	sbrs	r19, 2
    5398:	06 c0       	rjmp	.+12     	;  0x53a6
    539a:	b3 94       	inc	r11
    539c:	b3 94       	inc	r11
    539e:	04 c0       	rjmp	.+8      	;  0x53a8
    53a0:	83 2f       	mov	r24, r19
    53a2:	86 78       	andi	r24, 0x86	; 134
    53a4:	09 f0       	breq	.+2      	;  0x53a8
    53a6:	b3 94       	inc	r11
    53a8:	33 fd       	sbrc	r19, 3
    53aa:	13 c0       	rjmp	.+38     	;  0x53d2
    53ac:	30 ff       	sbrs	r19, 0
    53ae:	06 c0       	rjmp	.+12     	;  0x53bc
    53b0:	5a 2c       	mov	r5, r10
    53b2:	b3 14       	cp	r11, r3
    53b4:	18 f4       	brcc	.+6      	;  0x53bc
    53b6:	53 0c       	add	r5, r3
    53b8:	5b 18       	sub	r5, r11
    53ba:	b3 2c       	mov	r11, r3
    53bc:	b3 14       	cp	r11, r3
    53be:	68 f4       	brcc	.+26     	;  0x53da
    53c0:	b7 01       	movw	r22, r14
    53c2:	80 e2       	ldi	r24, 0x20	; 32
    53c4:	90 e0       	ldi	r25, 0x00	; 0
    53c6:	3c 87       	std	Y+12, r19	; 0x0c
    53c8:	0e 94 63 2a 	call	0x54c6	;  0x54c6
    53cc:	b3 94       	inc	r11
    53ce:	3c 85       	ldd	r19, Y+12	; 0x0c
    53d0:	f5 cf       	rjmp	.-22     	;  0x53bc
    53d2:	b3 14       	cp	r11, r3
    53d4:	10 f4       	brcc	.+4      	;  0x53da
    53d6:	3b 18       	sub	r3, r11
    53d8:	01 c0       	rjmp	.+2      	;  0x53dc
    53da:	31 2c       	mov	r3, r1
    53dc:	34 ff       	sbrs	r19, 4
    53de:	12 c0       	rjmp	.+36     	;  0x5404
    53e0:	b7 01       	movw	r22, r14
    53e2:	80 e3       	ldi	r24, 0x30	; 48
    53e4:	90 e0       	ldi	r25, 0x00	; 0
    53e6:	3c 87       	std	Y+12, r19	; 0x0c
    53e8:	0e 94 63 2a 	call	0x54c6	;  0x54c6
    53ec:	3c 85       	ldd	r19, Y+12	; 0x0c
    53ee:	32 ff       	sbrs	r19, 2
    53f0:	17 c0       	rjmp	.+46     	;  0x5420
    53f2:	31 fd       	sbrc	r19, 1
    53f4:	03 c0       	rjmp	.+6      	;  0x53fc
    53f6:	88 e7       	ldi	r24, 0x78	; 120
    53f8:	90 e0       	ldi	r25, 0x00	; 0
    53fa:	02 c0       	rjmp	.+4      	;  0x5400
    53fc:	88 e5       	ldi	r24, 0x58	; 88
    53fe:	90 e0       	ldi	r25, 0x00	; 0
    5400:	b7 01       	movw	r22, r14
    5402:	0c c0       	rjmp	.+24     	;  0x541c
    5404:	83 2f       	mov	r24, r19
    5406:	86 78       	andi	r24, 0x86	; 134
    5408:	59 f0       	breq	.+22     	;  0x5420
    540a:	31 ff       	sbrs	r19, 1
    540c:	02 c0       	rjmp	.+4      	;  0x5412
    540e:	8b e2       	ldi	r24, 0x2B	; 43
    5410:	01 c0       	rjmp	.+2      	;  0x5414
    5412:	80 e2       	ldi	r24, 0x20	; 32
    5414:	37 fd       	sbrc	r19, 7
    5416:	8d e2       	ldi	r24, 0x2D	; 45
    5418:	b7 01       	movw	r22, r14
    541a:	90 e0       	ldi	r25, 0x00	; 0
    541c:	0e 94 63 2a 	call	0x54c6	;  0x54c6
    5420:	a5 14       	cp	r10, r5
    5422:	38 f4       	brcc	.+14     	;  0x5432
    5424:	b7 01       	movw	r22, r14
    5426:	80 e3       	ldi	r24, 0x30	; 48
    5428:	90 e0       	ldi	r25, 0x00	; 0
    542a:	0e 94 63 2a 	call	0x54c6	;  0x54c6
    542e:	5a 94       	dec	r5
    5430:	f7 cf       	rjmp	.-18     	;  0x5420
    5432:	aa 94       	dec	r10
    5434:	f4 01       	movw	r30, r8
    5436:	ea 0d       	add	r30, r10
    5438:	f1 1d       	adc	r31, r1
    543a:	80 81       	ld	r24, Z
    543c:	b7 01       	movw	r22, r14
    543e:	90 e0       	ldi	r25, 0x00	; 0
    5440:	0e 94 63 2a 	call	0x54c6	;  0x54c6
    5444:	a1 10       	cpse	r10, r1
    5446:	f5 cf       	rjmp	.-22     	;  0x5432
    5448:	33 20       	and	r3, r3
    544a:	09 f4       	brne	.+2      	;  0x544e
    544c:	51 ce       	rjmp	.-862    	;  0x50f0
    544e:	b7 01       	movw	r22, r14
    5450:	80 e2       	ldi	r24, 0x20	; 32
    5452:	90 e0       	ldi	r25, 0x00	; 0
    5454:	0e 94 63 2a 	call	0x54c6	;  0x54c6
    5458:	3a 94       	dec	r3
    545a:	f6 cf       	rjmp	.-20     	;  0x5448
    545c:	f7 01       	movw	r30, r14
    545e:	86 81       	ldd	r24, Z+6	; 0x06
    5460:	97 81       	ldd	r25, Z+7	; 0x07
    5462:	02 c0       	rjmp	.+4      	;  0x5468
    5464:	8f ef       	ldi	r24, 0xFF	; 255
    5466:	9f ef       	ldi	r25, 0xFF	; 255
    5468:	2c 96       	adiw	r28, 0x0c	; 12
    546a:	cd bf       	out	0x3d, r28	; 61
    546c:	de bf       	out	0x3e, r29	; 62
    546e:	df 91       	pop	r29
    5470:	cf 91       	pop	r28
    5472:	1f 91       	pop	r17
    5474:	0f 91       	pop	r16
    5476:	ff 90       	pop	r15
    5478:	ef 90       	pop	r14
    547a:	df 90       	pop	r13
    547c:	cf 90       	pop	r12
    547e:	bf 90       	pop	r11
    5480:	af 90       	pop	r10
    5482:	9f 90       	pop	r9
    5484:	8f 90       	pop	r8
    5486:	7f 90       	pop	r7
    5488:	6f 90       	pop	r6
    548a:	5f 90       	pop	r5
    548c:	4f 90       	pop	r4
    548e:	3f 90       	pop	r3
    5490:	2f 90       	pop	r2
    5492:	08 95       	ret
    5494:	99 27       	eor	r25, r25
    5496:	88 27       	eor	r24, r24
    5498:	08 95       	ret
    549a:	fc 01       	movw	r30, r24
    549c:	05 90       	lpm	r0, Z+
    549e:	61 50       	subi	r22, 0x01	; 1
    54a0:	70 40       	sbci	r23, 0x00	; 0
    54a2:	01 10       	cpse	r0, r1
    54a4:	d8 f7       	brcc	.-10     	;  0x549c
    54a6:	80 95       	com	r24
    54a8:	90 95       	com	r25
    54aa:	8e 0f       	add	r24, r30
    54ac:	9f 1f       	adc	r25, r31
    54ae:	08 95       	ret
    54b0:	fc 01       	movw	r30, r24
    54b2:	61 50       	subi	r22, 0x01	; 1
    54b4:	70 40       	sbci	r23, 0x00	; 0
    54b6:	01 90       	ld	r0, Z+
    54b8:	01 10       	cpse	r0, r1
    54ba:	d8 f7       	brcc	.-10     	;  0x54b2
    54bc:	80 95       	com	r24
    54be:	90 95       	com	r25
    54c0:	8e 0f       	add	r24, r30
    54c2:	9f 1f       	adc	r25, r31
    54c4:	08 95       	ret
    54c6:	0f 93       	push	r16
    54c8:	1f 93       	push	r17
    54ca:	cf 93       	push	r28
    54cc:	df 93       	push	r29
    54ce:	fb 01       	movw	r30, r22
    54d0:	23 81       	ldd	r18, Z+3	; 0x03
    54d2:	21 fd       	sbrc	r18, 1
    54d4:	03 c0       	rjmp	.+6      	;  0x54dc
    54d6:	8f ef       	ldi	r24, 0xFF	; 255
    54d8:	9f ef       	ldi	r25, 0xFF	; 255
    54da:	28 c0       	rjmp	.+80     	;  0x552c
    54dc:	22 ff       	sbrs	r18, 2
    54de:	16 c0       	rjmp	.+44     	;  0x550c
    54e0:	46 81       	ldd	r20, Z+6	; 0x06
    54e2:	57 81       	ldd	r21, Z+7	; 0x07
    54e4:	24 81       	ldd	r18, Z+4	; 0x04
    54e6:	35 81       	ldd	r19, Z+5	; 0x05
    54e8:	42 17       	cp	r20, r18
    54ea:	53 07       	cpc	r21, r19
    54ec:	44 f4       	brge	.+16     	;  0x54fe
    54ee:	a0 81       	ld	r26, Z
    54f0:	b1 81       	ldd	r27, Z+1	; 0x01
    54f2:	9d 01       	movw	r18, r26
    54f4:	2f 5f       	subi	r18, 0xFF	; 255
    54f6:	3f 4f       	sbci	r19, 0xFF	; 255
    54f8:	20 83       	st	Z, r18
    54fa:	31 83       	std	Z+1, r19	; 0x01
    54fc:	8c 93       	st	X, r24
    54fe:	26 81       	ldd	r18, Z+6	; 0x06
    5500:	37 81       	ldd	r19, Z+7	; 0x07
    5502:	2f 5f       	subi	r18, 0xFF	; 255
    5504:	3f 4f       	sbci	r19, 0xFF	; 255
    5506:	26 83       	std	Z+6, r18	; 0x06
    5508:	37 83       	std	Z+7, r19	; 0x07
    550a:	10 c0       	rjmp	.+32     	;  0x552c
    550c:	eb 01       	movw	r28, r22
    550e:	09 2f       	mov	r16, r25
    5510:	18 2f       	mov	r17, r24
    5512:	00 84       	ldd	r0, Z+8	; 0x08
    5514:	f1 85       	ldd	r31, Z+9	; 0x09
    5516:	e0 2d       	mov	r30, r0
    5518:	19 95       	eicall
    551a:	89 2b       	or	r24, r25
    551c:	e1 f6       	brne	.-72     	;  0x54d6
    551e:	8e 81       	ldd	r24, Y+6	; 0x06
    5520:	9f 81       	ldd	r25, Y+7	; 0x07
    5522:	01 96       	adiw	r24, 0x01	; 1
    5524:	8e 83       	std	Y+6, r24	; 0x06
    5526:	9f 83       	std	Y+7, r25	; 0x07
    5528:	81 2f       	mov	r24, r17
    552a:	90 2f       	mov	r25, r16
    552c:	df 91       	pop	r29
    552e:	cf 91       	pop	r28
    5530:	1f 91       	pop	r17
    5532:	0f 91       	pop	r16
    5534:	08 95       	ret
    5536:	fa 01       	movw	r30, r20
    5538:	aa 27       	eor	r26, r26
    553a:	28 30       	cpi	r18, 0x08	; 8
    553c:	51 f1       	breq	.+84     	;  0x5592
    553e:	20 31       	cpi	r18, 0x10	; 16
    5540:	81 f1       	breq	.+96     	;  0x55a2
    5542:	e8 94       	clt
    5544:	6f 93       	push	r22
    5546:	6e 7f       	andi	r22, 0xFE	; 254
    5548:	6e 5f       	subi	r22, 0xFE	; 254
    554a:	7f 4f       	sbci	r23, 0xFF	; 255
    554c:	8f 4f       	sbci	r24, 0xFF	; 255
    554e:	9f 4f       	sbci	r25, 0xFF	; 255
    5550:	af 4f       	sbci	r26, 0xFF	; 255
    5552:	b1 e0       	ldi	r27, 0x01	; 1
    5554:	3e d0       	rcall	.+124    	;  0x55d2
    5556:	b4 e0       	ldi	r27, 0x04	; 4
    5558:	3c d0       	rcall	.+120    	;  0x55d2
    555a:	67 0f       	add	r22, r23
    555c:	78 1f       	adc	r23, r24
    555e:	89 1f       	adc	r24, r25
    5560:	9a 1f       	adc	r25, r26
    5562:	a1 1d       	adc	r26, r1
    5564:	68 0f       	add	r22, r24
    5566:	79 1f       	adc	r23, r25
    5568:	8a 1f       	adc	r24, r26
    556a:	91 1d       	adc	r25, r1
    556c:	a1 1d       	adc	r26, r1
    556e:	6a 0f       	add	r22, r26
    5570:	71 1d       	adc	r23, r1
    5572:	81 1d       	adc	r24, r1
    5574:	91 1d       	adc	r25, r1
    5576:	a1 1d       	adc	r26, r1
    5578:	20 d0       	rcall	.+64     	;  0x55ba
    557a:	09 f4       	brne	.+2      	;  0x557e
    557c:	68 94       	set
    557e:	3f 91       	pop	r19
    5580:	2a e0       	ldi	r18, 0x0A	; 10
    5582:	26 9f       	mul	r18, r22
    5584:	11 24       	eor	r1, r1
    5586:	30 19       	sub	r19, r0
    5588:	30 5d       	subi	r19, 0xD0	; 208
    558a:	31 93       	st	Z+, r19
    558c:	de f6       	brtc	.-74     	;  0x5544
    558e:	cf 01       	movw	r24, r30
    5590:	08 95       	ret
    5592:	46 2f       	mov	r20, r22
    5594:	47 70       	andi	r20, 0x07	; 7
    5596:	40 5d       	subi	r20, 0xD0	; 208
    5598:	41 93       	st	Z+, r20
    559a:	b3 e0       	ldi	r27, 0x03	; 3
    559c:	0f d0       	rcall	.+30     	;  0x55bc
    559e:	c9 f7       	brne	.-14     	;  0x5592
    55a0:	f6 cf       	rjmp	.-20     	;  0x558e
    55a2:	46 2f       	mov	r20, r22
    55a4:	4f 70       	andi	r20, 0x0F	; 15
    55a6:	40 5d       	subi	r20, 0xD0	; 208
    55a8:	4a 33       	cpi	r20, 0x3A	; 58
    55aa:	18 f0       	brcs	.+6      	;  0x55b2
    55ac:	49 5d       	subi	r20, 0xD9	; 217
    55ae:	31 fd       	sbrc	r19, 1
    55b0:	40 52       	subi	r20, 0x20	; 32
    55b2:	41 93       	st	Z+, r20
    55b4:	02 d0       	rcall	.+4      	;  0x55ba
    55b6:	a9 f7       	brne	.-22     	;  0x55a2
    55b8:	ea cf       	rjmp	.-44     	;  0x558e
    55ba:	b4 e0       	ldi	r27, 0x04	; 4
    55bc:	a6 95       	lsr	r26
    55be:	97 95       	ror	r25
    55c0:	87 95       	ror	r24
    55c2:	77 95       	ror	r23
    55c4:	67 95       	ror	r22
    55c6:	ba 95       	dec	r27
    55c8:	c9 f7       	brne	.-14     	;  0x55bc
    55ca:	00 97       	sbiw	r24, 0x00	; 0
    55cc:	61 05       	cpc	r22, r1
    55ce:	71 05       	cpc	r23, r1
    55d0:	08 95       	ret
    55d2:	9b 01       	movw	r18, r22
    55d4:	ac 01       	movw	r20, r24
    55d6:	0a 2e       	mov	r0, r26
    55d8:	06 94       	lsr	r0
    55da:	57 95       	ror	r21
    55dc:	47 95       	ror	r20
    55de:	37 95       	ror	r19
    55e0:	27 95       	ror	r18
    55e2:	ba 95       	dec	r27
    55e4:	c9 f7       	brne	.-14     	;  0x55d8
    55e6:	62 0f       	add	r22, r18
    55e8:	73 1f       	adc	r23, r19
    55ea:	84 1f       	adc	r24, r20
    55ec:	95 1f       	adc	r25, r21
    55ee:	a0 1d       	adc	r26, r0
    55f0:	08 95       	ret
    55f2:	03 d0       	rcall	.+6      	;  0x55fa
    55f4:	80 81       	ld	r24, Z
    55f6:	99 27       	eor	r25, r25
    55f8:	08 95       	ret
    55fa:	e0 ec       	ldi	r30, 0xC0	; 192
    55fc:	f1 e0       	ldi	r31, 0x01	; 1
    55fe:	37 85       	ldd	r19, Z+15	; 0x0f
    5600:	37 fd       	sbrc	r19, 7
    5602:	fd cf       	rjmp	.-6      	;  0x55fe
    5604:	34 85       	ldd	r19, Z+12	; 0x0c
    5606:	38 60       	ori	r19, 0x08	; 8
    5608:	34 87       	std	Z+12, r19	; 0x0c
    560a:	fc 01       	movw	r30, r24
    560c:	e0 50       	subi	r30, 0x00	; 0
    560e:	f0 4f       	sbci	r31, 0xF0	; 240
    5610:	08 95       	ret
    5612:	26 2f       	mov	r18, r22
    5614:	e0 ec       	ldi	r30, 0xC0	; 192
    5616:	f1 e0       	ldi	r31, 0x01	; 1
    5618:	37 85       	ldd	r19, Z+15	; 0x0f
    561a:	37 fd       	sbrc	r19, 7
    561c:	fd cf       	rjmp	.-6      	;  0x5618
    561e:	34 85       	ldd	r19, Z+12	; 0x0c
    5620:	37 7f       	andi	r19, 0xF7	; 247
    5622:	34 87       	std	Z+12, r19	; 0x0c
    5624:	37 85       	ldd	r19, Z+15	; 0x0f
    5626:	31 ff       	sbrs	r19, 1
    5628:	09 c0       	rjmp	.+18     	;  0x563c
    562a:	36 e3       	ldi	r19, 0x36	; 54
    562c:	32 87       	std	Z+10, r19	; 0x0a
    562e:	38 ed       	ldi	r19, 0xD8	; 216
    5630:	34 bf       	out	0x34, r19	; 52
    5632:	31 e0       	ldi	r19, 0x01	; 1
    5634:	33 87       	std	Z+11, r19	; 0x0b
    5636:	37 85       	ldd	r19, Z+15	; 0x0f
    5638:	37 fd       	sbrc	r19, 7
    563a:	fd cf       	rjmp	.-6      	;  0x5636
    563c:	33 e3       	ldi	r19, 0x33	; 51
    563e:	32 87       	std	Z+10, r19	; 0x0a
    5640:	80 83       	st	Z, r24
    5642:	91 83       	std	Z+1, r25	; 0x01
    5644:	12 82       	std	Z+2, r1	; 0x02
    5646:	24 83       	std	Z+4, r18	; 0x04
    5648:	25 e3       	ldi	r18, 0x35	; 53
    564a:	22 87       	std	Z+10, r18	; 0x0a
    564c:	28 ed       	ldi	r18, 0xD8	; 216
    564e:	31 e0       	ldi	r19, 0x01	; 1
    5650:	24 bf       	out	0x34, r18	; 52
    5652:	33 87       	std	Z+11, r19	; 0x0b
    5654:	01 96       	adiw	r24, 0x01	; 1
    5656:	08 95       	ret
    5658:	f8 94       	cli
    565a:	ff cf       	rjmp	.-2      	;  0x565a
    565c:	12 00       	.word	0x0012	; ????
    565e:	05 00       	.word	0x0005	; ????
    5660:	00 69       	ori	r16, 0x90	; 144
    5662:	87 19       	sub	r24, r7
    5664:	00 a0       	ldd	r0, Z+32	; 0x20
    5666:	08 40       	sbci	r16, 0x08	; 8
    5668:	06 04       	cpc	r0, r6
    566a:	08 09       	sbc	r16, r8
    566c:	20 b0       	in	r2, 0x00	; 0
    566e:	09 60       	ori	r16, 0x09	; 9
    5670:	06 40       	sbci	r16, 0x06	; 6
    5672:	80 11       	cpse	r24, r0
    5674:	20 00       	.word	0x0020	; ????
    5676:	00 d9       	rcall	.-3584   	;  0x4878
    5678:	22 20       	and	r2, r2
    567a:	00 46       	sbci	r16, 0x60	; 96
    567c:	49 20       	and	r4, r9
    567e:	64 65       	ori	r22, 0x54	; 84
    5680:	74 65       	ori	r23, 0x54	; 84
    5682:	63 74       	andi	r22, 0x43	; 67
    5684:	65 64       	ori	r22, 0x45	; 69
    5686:	2c 20       	and	r2, r12
    5688:	70 65       	ori	r23, 0x50	; 80
    568a:	72 66       	ori	r23, 0x62	; 98
    568c:	6f 72       	andi	r22, 0x2F	; 47
    568e:	6d 69       	ori	r22, 0x9D	; 157
    5690:	6e 67       	ori	r22, 0x7E	; 126
    5692:	20 73       	andi	r18, 0x30	; 48
    5694:	6c 6f       	ori	r22, 0xFC	; 252
    5696:	77 20       	and	r7, r7
    5698:	73 74       	andi	r23, 0x43	; 67
    569a:	61 72       	andi	r22, 0x21	; 33
    569c:	74 75       	andi	r23, 0x54	; 84
    569e:	70 2e       	mov	r7, r16
    56a0:	2e 2e       	mov	r2, r30
    56a2:	20 54       	subi	r18, 0x40	; 64
    56a4:	68 69       	ori	r22, 0x98	; 152
    56a6:	73 20       	and	r7, r3
    56a8:	6d 61       	ori	r22, 0x1D	; 29
    56aa:	79 20       	and	r7, r9
    56ac:	74 61       	ori	r23, 0x14	; 20
    56ae:	6b 65       	ori	r22, 0x5B	; 91
    56b0:	20 61       	ori	r18, 0x10	; 16
    56b2:	20 77       	andi	r18, 0x70	; 112
    56b4:	68 69       	ori	r22, 0x98	; 152
    56b6:	6c 65       	ori	r22, 0x5C	; 92
    56b8:	2e 0a       	sbc	r2, r30
    56ba:	00 0d       	add	r16, r0
    56bc:	25 69       	ori	r18, 0x95	; 149
    56be:	25 25       	eor	r18, r5
    56c0:	00 0d       	add	r16, r0
    56c2:	25 69       	ori	r18, 0x95	; 149
    56c4:	25 25       	eor	r18, r5
    56c6:	0a 00       	.word	0x000a	; ????
    56c8:	41 42       	sbci	r20, 0x21	; 33
    56ca:	4f 52       	subi	r20, 0x2F	; 47
    56cc:	54 21       	and	r21, r4
    56ce:	20 63       	ori	r18, 0x30	; 48
    56d0:	6f 6e       	ori	r22, 0xEF	; 239
    56d2:	73 74       	andi	r23, 0x43	; 67
    56d4:	61 6e       	ori	r22, 0xE1	; 225
    56d6:	74 20       	and	r7, r4
    56d8:	72 61       	ori	r23, 0x12	; 18
    56da:	6e 64       	ori	r22, 0x4E	; 78
    56dc:	6f 6d       	ori	r22, 0xDF	; 223
    56de:	20 76       	andi	r18, 0x60	; 96
    56e0:	61 6c       	ori	r22, 0xC1	; 193
    56e2:	75 65       	ori	r23, 0x55	; 85
    56e4:	21 0d       	add	r18, r1
    56e6:	0a 00       	.word	0x000a	; ????
    56e8:	62 61       	ori	r22, 0x12	; 18
    56ea:	63 6b       	ori	r22, 0xB3	; 179
    56ec:	64 6f       	ori	r22, 0xF4	; 244
    56ee:	6f 72       	andi	r22, 0x2F	; 47
    56f0:	00 55       	subi	r16, 0x50	; 80
    56f2:	03 0c       	add	r0, r3
    56f4:	34 9f       	mul	r19, r20
    56f6:	c9 5e       	subi	r28, 0xE9	; 233
    56f8:	13 85       	ldd	r17, Z+11	; 0x0b
    56fa:	93 5e       	subi	r25, 0xE3	; 227
    56fc:	a2 33       	cpi	r26, 0x32	; 50
    56fe:	66 b5       	in	r22, 0x26	; 38
    5700:	a9 99       	sbic	0x15, 1	; 21
    5702:	45 d8       	rcall	.-3958   	;  0x478e
    5704:	bf 35       	cpi	r27, 0x5F	; 95
    5706:	d3 72       	andi	r29, 0x23	; 35
    5708:	c3 aa       	std	Z+51, r12	; 0x33
    570a:	72 2b       	or	r23, r18
    570c:	b9 74       	andi	r27, 0x49	; 73
    570e:	92 ca       	rjmp	.-2780   	;  0x4c34
    5710:	26 0d       	add	r18, r6
    5712:	0a 49       	sbci	r16, 0x9A	; 154
    5714:	6e 69       	ori	r22, 0x9E	; 158
    5716:	74 69       	ori	r23, 0x94	; 148
    5718:	61 6c       	ori	r22, 0xC1	; 193
    571a:	69 7a       	andi	r22, 0xA9	; 169
    571c:	69 6e       	ori	r22, 0xE9	; 233
    571e:	67 2e       	mov	r6, r23
    5720:	2e 2e       	mov	r2, r30
    5722:	00 0d       	add	r16, r0
    5724:	49 6e       	ori	r20, 0xE9	; 233
    5726:	69 74       	andi	r22, 0x49	; 73
    5728:	69 61       	ori	r22, 0x19	; 25
    572a:	6c 69       	ori	r22, 0x9C	; 156
    572c:	7a 65       	ori	r23, 0x5A	; 90
    572e:	64 20       	and	r6, r4
    5730:	20 20       	and	r2, r0
    5732:	20 20       	and	r2, r0
    5734:	20 0d       	add	r18, r0
    5736:	0a 00       	.word	0x000a	; ????
    5738:	0d 0a       	sbc	r0, r29
    573a:	45 78       	andi	r20, 0x85	; 133
    573c:	70 65       	ori	r23, 0x50	; 80
    573e:	63 74       	andi	r22, 0x43	; 67
    5740:	65 64       	ori	r22, 0x45	; 69
    5742:	20 66       	ori	r18, 0x60	; 96
    5744:	6f 72       	andi	r22, 0x2F	; 47
    5746:	6d 61       	ori	r22, 0x1D	; 29
    5748:	74 3a       	cpi	r23, 0xA4	; 164
    574a:	20 5b       	subi	r18, 0xB0	; 176
    574c:	6e 61       	ori	r22, 0x1E	; 30
    574e:	6d 65       	ori	r22, 0x5D	; 93
    5750:	5f 6c       	ori	r21, 0xCF	; 207
    5752:	65 6e       	ori	r22, 0xE5	; 229
    5754:	67 74       	andi	r22, 0x47	; 71
    5756:	68 5d       	subi	r22, 0xD8	; 216
    5758:	3a 5b       	subi	r19, 0xBA	; 186
    575a:	70 61       	ori	r23, 0x10	; 16
    575c:	73 73       	andi	r23, 0x33	; 51
    575e:	77 6f       	ori	r23, 0xF7	; 247
    5760:	72 64       	ori	r23, 0x42	; 66
    5762:	5f 6c       	ori	r21, 0xCF	; 207
    5764:	65 6e       	ori	r22, 0xE5	; 229
    5766:	67 74       	andi	r22, 0x47	; 71
    5768:	68 5d       	subi	r22, 0xD8	; 216
    576a:	3a 5b       	subi	r19, 0xBA	; 186
    576c:	6e 61       	ori	r22, 0x1E	; 30
    576e:	6d 65       	ori	r22, 0x5D	; 93
    5770:	5d 5b       	subi	r21, 0xBD	; 189
    5772:	70 61       	ori	r23, 0x10	; 16
    5774:	73 73       	andi	r23, 0x33	; 51
    5776:	77 6f       	ori	r23, 0xF7	; 247
    5778:	72 64       	ori	r23, 0x42	; 66
    577a:	5d 00       	.word	0x005d	; ????
    577c:	0d 0a       	sbc	r0, r29
    577e:	55 6e       	ori	r21, 0xE5	; 229
    5780:	6b 6e       	ori	r22, 0xEB	; 235
    5782:	6f 77       	andi	r22, 0x7F	; 127
    5784:	6e 20       	and	r6, r14
    5786:	75 73       	andi	r23, 0x35	; 53
    5788:	65 72       	andi	r22, 0x25	; 37
    578a:	21 00       	.word	0x0021	; ????
    578c:	0d 0a       	sbc	r0, r29
    578e:	57 72       	andi	r21, 0x27	; 39
    5790:	6f 6e       	ori	r22, 0xEF	; 239
    5792:	67 20       	and	r6, r7
    5794:	70 61       	ori	r23, 0x10	; 16
    5796:	73 73       	andi	r23, 0x33	; 51
    5798:	77 6f       	ori	r23, 0xF7	; 247
    579a:	72 64       	ori	r23, 0x42	; 66
    579c:	21 00       	.word	0x0021	; ????
    579e:	0d 0a       	sbc	r0, r29
    57a0:	59 6f       	ori	r21, 0xF9	; 249
    57a2:	75 72       	andi	r23, 0x25	; 37
    57a4:	20 66       	ori	r18, 0x60	; 96
    57a6:	6c 61       	ori	r22, 0x1C	; 28
    57a8:	67 20       	and	r6, r7
    57aa:	69 73       	andi	r22, 0x39	; 57
    57ac:	3a 0d       	add	r19, r10
    57ae:	0a 00       	.word	0x000a	; ????
    57b0:	0d 0a       	sbc	r0, r29
    57b2:	59 6f       	ori	r21, 0xF9	; 249
    57b4:	75 20       	and	r7, r5
    57b6:	73 65       	ori	r23, 0x53	; 83
    57b8:	65 6d       	ori	r22, 0xD5	; 213
    57ba:	20 74       	andi	r18, 0x40	; 64
    57bc:	6f 20       	and	r6, r15
    57be:	62 65       	ori	r22, 0x52	; 82
    57c0:	20 61       	ori	r18, 0x10	; 16
    57c2:	74 74       	andi	r23, 0x44	; 68
    57c4:	65 6d       	ori	r22, 0xD5	; 213
    57c6:	70 74       	andi	r23, 0x40	; 64
    57c8:	69 6e       	ori	r22, 0xE9	; 233
    57ca:	67 20       	and	r6, r7
    57cc:	74 6f       	ori	r23, 0xF4	; 244
    57ce:	20 69       	ori	r18, 0x90	; 144
    57d0:	6e 66       	ori	r22, 0x6E	; 110
    57d2:	6c 75       	andi	r22, 0x5C	; 92
    57d4:	65 6e       	ori	r22, 0xE5	; 229
    57d6:	63 65       	ori	r22, 0x53	; 83
    57d8:	20 74       	andi	r18, 0x40	; 64
    57da:	68 65       	ori	r22, 0x58	; 88
    57dc:	20 52       	subi	r18, 0x20	; 32
    57de:	4e 47       	sbci	r20, 0x7E	; 126
    57e0:	2e 20       	and	r2, r14
    57e2:	49 66       	ori	r20, 0x69	; 105
    57e4:	20 79       	andi	r18, 0x90	; 144
    57e6:	6f 75       	andi	r22, 0x5F	; 95
    57e8:	20 62       	ori	r18, 0x20	; 32
    57ea:	65 6c       	ori	r22, 0xC5	; 197
    57ec:	69 65       	ori	r22, 0x59	; 89
    57ee:	76 65       	ori	r23, 0x56	; 86
    57f0:	20 74       	andi	r18, 0x40	; 64
    57f2:	68 69       	ori	r22, 0x98	; 152
    57f4:	73 20       	and	r7, r3
    57f6:	74 6f       	ori	r23, 0xF4	; 244
    57f8:	20 62       	ori	r18, 0x20	; 32
    57fa:	65 20       	and	r6, r5
    57fc:	61 20       	and	r6, r1
    57fe:	66 61       	ori	r22, 0x16	; 22
    5800:	6c 73       	andi	r22, 0x3C	; 60
    5802:	65 20       	and	r6, r5
    5804:	70 6f       	ori	r23, 0xF0	; 240
    5806:	73 69       	ori	r23, 0x93	; 147
    5808:	74 69       	ori	r23, 0x94	; 148
    580a:	76 65       	ori	r23, 0x56	; 86
    580c:	2c 20       	and	r2, r12
    580e:	79 6f       	ori	r23, 0xF9	; 249
    5810:	75 20       	and	r7, r5
    5812:	63 61       	ori	r22, 0x13	; 19
    5814:	6e 20       	and	r6, r14
    5816:	72 65       	ori	r23, 0x52	; 82
    5818:	74 72       	andi	r23, 0x24	; 36
    581a:	79 20       	and	r7, r9
    581c:	64 6f       	ori	r22, 0xF4	; 244
    581e:	69 6e       	ori	r22, 0xE9	; 233
    5820:	67 20       	and	r6, r7
    5822:	77 68       	ori	r23, 0x87	; 135
    5824:	61 74       	andi	r22, 0x41	; 65
    5826:	20 79       	andi	r18, 0x90	; 144
    5828:	6f 75       	andi	r22, 0x5F	; 95
    582a:	20 64       	ori	r18, 0x40	; 64
    582c:	69 64       	ori	r22, 0x49	; 73
    582e:	2e 0d       	add	r18, r14
    5830:	0a 00       	.word	0x000a	; ????
